(lp0
F1.625714015809966
aF38.38880268353221
aF35.45174966396748
aF35.45376926128604
aF13.687179872210136
aF32.480838071632384
aF4.67850272908631
aF10.942936517223172
aF6.389912001947143
aF6.453420230556281
aF44.217946026818026
aF3.016948879512308
aF4.03331000573743
aF43.34755405742387
aF9.35338067412562
aF18.541413495556217
aF65.02904748885736
aF19.461471755140398
aF16.467673446379663
aF21.64724961647828
aF43.51539648946516
aF6.737625286760947
aF11.611221480482241
aF14.902343954003445
aF3.759023858635923
aF32.58812850272876
aF30.75053835521575
aF20.066513285406536
aF25.964599354016634
aF16.53922944784582
aF3.584514742384746
aF34.4571140748234
aF15.774077873245421
aF49.54057394390045
aF1.3961399742298155
aF22.362398920097977
aF12.250400255548834
aF19.066463871018094
aF59.82450830968199
aF17.583463941948413
aF80.62411825280171
aF5.205605424304365
aF20.16176818787822
aF16.778433485981562
aF29.141631446157252
aF23.887023234483657
aF16.986805963908214
aF18.04901162901247
aF41.0607750893839
aF0.5252302884100684
aF41.240316876647356
aF11.644353492913428
aF25.735364547458346
aF24.50176904379651
aF11.139715703537215
aF42.74293483953433
aF17.212548895726947
aF8.988645468554658
aF22.211439090739972
aF1.033303581743271
aF16.168891334039944
aF35.717492528198484
aF29.974713631549687
aF12.817676318740556
aF42.32378843256167
aF8.473356809041215
aF6.220782936113706
aF17.783592220165016
aF15.409642442870203
aF6.818164339167301
aF5.714066713399795
aF40.26022080624368
aF13.63875320766188
aF37.02795173679224
aF21.086515925747968
aF21.187788639832064
aF7.690774119869573
aF15.272508370335462
aF18.128145904041062
aF72.23073994981709
aF31.161826762881905
aF21.65723271894519
aF3.5288157813633245
aF35.64011598283649
aF10.730792090198067
aF9.528613922829729
aF18.350767704337155
aF13.636931466088924
aF54.87202538076163
aF0.5478429659535771
aF50.91696009548728
aF4.954987999719486
aF9.843597305119793
aF37.53395315577184
aF10.70385755045501
aF32.82045424095566
aF6.861165969586385
aF11.54072803038789
aF17.389516325845047
aF45.969108920611916
aF55.613510889223484
aF1.759088610304996
aF10.272294409167353
aF4.055680054584382
aF39.276628959722224
aF54.942349687292385
aF17.687478056919915
aF33.55916553321185
aF11.271402983303215
aF8.960208334570114
aF4.862992164836695
aF1.6800057208786618
aF9.256471071780048
aF3.624550727922148
aF34.47252501713595
aF15.207152686753293
aF5.644554986725711
aF29.630852500540797
aF21.24699339208417
aF4.533533780447217
aF6.397091135799551
aF49.411290073764974
aF32.427278423288115
aF37.27469482266055
aF4.280314031105154
aF6.724196596721724
aF8.060842511145088
aF14.871574522669176
aF7.054253264231104
aF28.198955797716067
aF5.563412923573699
aF23.97497811894682
aF1.4019831153245876
aF15.48030174197855
aF8.945691589759312
aF4.451800178207401
aF36.8609853524687
aF1.7712547970799644
aF35.67628590581121
aF8.026074724520077
aF27.844108119629006
aF30.943476614608414
aF52.48216961182992
aF8.317990779950023
aF51.15242253055107
aF17.604676516923693
aF50.59070865665872
aF6.8123250784245615
aF35.49929674681122
aF38.07866748403073
aF7.705034217891568
aF32.04659994502621
aF15.923284301323987
aF11.655271435824991
aF4.144787010166342
aF41.04505164153977
aF13.407740085242185
aF32.88757328430868
aF20.187761673740795
aF5.839358606877137
aF33.45504214703291
aF8.932048546064062
aF35.75002168260694
aF17.74681210360709
aF28.3740493464013
aF1.8177283692713526
aF29.72830085432093
aF45.69052754766552
aF66.90699497837375
aF20.270338397719577
aF4.031561468640079
aF28.943640231674713
aF44.17576482915043
aF19.970039636975386
aF8.419444432282363
aF11.454120500856321
aF7.634507493787171
aF54.75845747531429
aF17.731194996904527
aF6.745231770411656
aF22.78105184275187
aF19.560929625813106
aF20.67207334585842
aF10.725152890840189
aF64.04399590715656
aF20.08524555921739
aF12.057216946464456
aF10.880144797120147
aF6.259116833066936
aF37.49129441906314
aF19.565903474825546
aF4.570413517952346
aF17.58546121601884
aF20.57351498432331
aF56.17452547993377
aF29.472039858830165
aF8.69445035166471
aF26.883807631444544
aF40.331345927004435
aF26.26533999978268
aF2.4758479423087136
aF26.986848758422255
aF30.95235888132786
aF0.8035526685217677
aF91.04118086515356
aF14.663534156109412
aF38.45473002987489
aF21.931836859153197
aF37.49703094600069
aF38.013055441043825
aF19.78841963335228
aF6.551384771802309
aF25.165845008966006
aF8.682681698101568
aF22.52266555836514
aF2.7359331364847566
aF7.9721699200029645
aF4.923006556029789
aF23.722170724956417
aF1.4496740989914632
aF50.70499634535434
aF14.570316670062848
aF8.31007063270597
aF13.205455051670324
aF5.762250537035476
aF29.73884481547955
aF11.885141190087923
aF21.383585928549582
aF9.396646808088429
aF41.713577400563764
aF18.1767522067384
aF11.140661652218798
aF32.648021098950274
aF25.61410446119944
aF0.6171054998899526
aF28.06103666401876
aF32.55111554512063
aF42.133609546968266
aF7.227467566419788
aF5.947246481645121
aF17.17549419463146
aF39.19192276038637
aF5.820031211143589
aF17.130318103410424
aF8.185325537611034
aF1.7912827137404799
aF5.550906557274687
aF32.24634730563772
aF44.217661547671185
aF2.778811727430427
aF35.0415748032361
aF25.331827919113465
aF27.155792085937183
aF70.00159408387682
aF12.190912599080562
aF11.334699578925065
aF1.1556544899817685
aF49.70828497956075
aF11.341385792292083
aF10.133728240622624
aF13.288745948079955
aF64.18631596619846
aF31.88219284480022
aF50.72239408217677
aF30.391991327017323
aF16.039139427649545
aF19.932222522919187
aF3.7368220620034425
aF35.24507899191296
aF1.5302558303781844
aF32.17026977531965
aF30.714576765300983
aF21.792882163547734
aF6.780202656729853
aF3.4404226223103653
aF28.781330485807686
aF30.88425604499222
aF21.588934721616134
aF11.217338267450144
aF23.960600041785003
aF11.878194366741315
aF15.925652129619952
aF33.05905847423718
aF11.213551927537377
aF62.59397152103353
aF21.54550837834976
aF16.53478197303538
aF46.88913210015544
aF43.47045748650399
aF9.32881041180922
aF5.3035896459137515
aF36.87511970232647
aF35.70824829335424
aF50.7319339653111
aF5.923208445781147
aF6.487950385498229
aF22.846676049334732
aF19.782587701542283
aF3.815732403241964
aF46.71172009147508
aF32.42439806389038
aF12.951222422959585
aF49.88139574312831
aF22.70283960991035
aF7.590475237226651
aF42.798747283199575
aF26.704837296011938
aF21.467504359305405
aF10.287828425748438
aF8.987771198973189
aF9.087317401572061
aF2.832089599933502
aF61.54384177896174
aF45.87454220174067
aF6.560321667490327
aF42.30885778071806
aF6.449092069894358
aF13.911420691539586
aF6.531187639546299
aF9.099523831438756
aF2.3953265951222797
aF15.503003635546081
aF11.436054172687198
aF9.983427079830687
aF28.112074551495972
aF6.66777910132643
aF21.07132283927406
aF43.400908911723675
aF10.460328363246239
aF8.558108660471488
aF36.96688361453661
aF4.49254444122254
aF44.911735389665004
aF41.51375182190952
aF28.533573369980157
aF8.66906519297596
aF7.136545302604294
aF19.7639334167428
aF2.7234251057135688
aF9.442517856340105
aF23.220505189268838
aF32.12649392319719
aF13.205460075183609
aF41.48340804829402
aF5.76149671287805
aF18.404152754450287
aF2.767004256267917
aF13.987606897703312
aF19.318146553369388
aF6.232921902785667
aF21.61377508358097
aF4.945290911079378
aF7.012841204081916
aF38.23614345681514
aF7.896574392060787
aF0.9867965491610184
aF17.372157305556577
aF14.872972959516138
aF10.856595718353544
aF18.124553736783483
aF8.478029851731165
aF38.04300366302187
aF32.553241243128035
aF13.44837029862935
aF42.093983087572944
aF15.882529248091469
aF2.1524488117247156
aF9.462901845827268
aF15.726012279088911
aF26.098211861939834
aF18.294059657846745
aF13.940042283152716
aF37.15423583638454
aF15.14250476199839
aF41.12305896246753
aF4.362526843116714
aF27.94501549353571
aF12.904899969758604
aF9.760805479114556
aF42.199039637596485
aF31.16449747017828
aF21.363346589599445
aF8.10818450862513
aF20.15079022180735
aF11.607617428048863
aF21.809968727917862
aF72.42411757596084
aF5.845582020326832
aF36.674103735309515
aF10.136550906320336
aF24.3679983301239
aF11.901208851161382
aF5.2778148595621275
aF15.383389094501497
aF5.149546431826478
aF20.34630218737216
aF6.924053734863149
aF21.738803644943882
aF31.03365894366357
aF16.606004256677725
aF25.467045975032203
aF35.00300779378001
aF17.379780876918282
aF11.687486789782708
aF8.948062003937789
aF49.246192537383806
aF67.82608894510767
aF36.52691943002243
aF49.7983662765438
aF47.53684493390814
aF18.865458130402832
aF1.7553210620204236
aF19.83769747351793
aF5.19502870997005
aF10.095994466233075
aF10.795974680294867
aF14.502079217912497
aF6.523495409179786
aF78.09445963461052
aF35.450986508555694
aF6.485498772370903
aF47.560100592500156
aF54.66698800095727
aF3.7515547883659566
aF4.13166058485412
aF27.488911844416155
aF20.42871470585684
aF17.95246824250972
aF35.706896677049144
aF20.464515057112774
aF46.888782074673465
aF25.72328200351797
aF38.270561256108785
aF32.386564102703474
aF4.6950663338781276
aF23.583581837363376
aF16.38996990974523
aF7.500336578087277
aF10.76058774864745
aF18.756397309950767
aF29.57151510143655
aF23.680542731862843
aF26.050370993090326
aF22.15834028622463
aF24.655950499437335
aF13.45912291908288
aF3.839944478349529
aF26.599358867428776
aF16.177046657987525
aF17.812746016491793
aF58.0479232013792
aF12.240295204633307
aF14.946467659185787
aF43.10531946569735
aF33.72408982687633
aF7.102990892018791
aF41.452272493475036
aF19.868384779924053
aF28.680438193789126
aF22.636645770729782
aF6.154979164779597
aF3.344014436718976
aF35.44718056039603
aF18.20832377715046
aF21.605869063481638
aF9.493500780560314
aF59.34292030280879
aF9.352754504880105
aF45.352707232766704
aF3.7403547701514372
aF7.107571267778891
aF9.518089917175171
aF10.314840474739361
aF22.797898736257675
aF0.788683124436422
aF41.08157015964181
aF5.405761898504596
aF14.033640500870002
aF51.69101488442299
aF1.61854661340564
aF21.6434430094326
aF16.372404486538148
aF22.035433068167887
aF81.37146399530785
aF4.557950064096138
aF5.605398300561604
aF0.04173352844359304
aF2.2129614207323045
aF28.78084874035763
aF16.572593629542027
aF95.20270111428728
aF12.044321757426298
aF31.053154361381335
aF22.563836214038606
aF6.255929635613537
aF50.899727695808274
aF28.895701019410627
aF13.59520906128662
aF8.088141861310453
aF40.270045486357446
aF30.686836483186404
aF2.521440051330751
aF10.617890106704975
aF58.23082744723776
aF8.372914898459554
aF3.345834025122488
aF19.487268327918148
aF39.10745746838245
aF30.03968995111079
aF2.3524155549341037
aF23.333092424380755
aF9.525640254173792
aF19.745773516092324
aF34.562847578464556
aF2.4600935892312283
aF38.20961454196156
aF47.199166546827016
aF33.83400880405597
aF25.414333784169003
aF7.339111372157361
aF10.799028490533527
aF5.149324555809169
aF28.218313850050528
aF14.624348810108588
aF6.6235748277123045
aF8.219348548934772
aF8.623612350155495
aF11.00524926829883
aF33.98775191451822
aF10.387760940463354
aF25.590294328797242
aF8.133586050293538
aF12.22432851025636
aF29.540994898207003
aF12.611315840112205
aF19.953101803150105
aF6.729284661464685
aF17.871446115740063
aF12.008023538656069
aF33.45529710502882
aF10.147781457534055
aF32.934154157995714
aF14.110404264326569
aF32.61686486528086
aF17.096295869037203
aF1.3502020723210897
aF32.360121269414684
aF5.159579025834178
aF14.499952409482262
aF41.28872236984581
aF12.160817927717419
aF4.227227068128487
aF4.128746849798322
aF104.93168787227421
aF32.11147316952599
aF54.91909147463027
aF18.59273340498906
aF100.51036179263613
aF51.32167549007616
aF23.976141673466824
aF26.378429960213072
aF21.972813231913534
aF11.373211822502416
aF20.748651152133217
aF32.07600022997867
aF55.61222284647269
aF28.444831566791496
aF41.85635320375186
aF3.707095749316943
aF19.885096585674525
aF10.191822662304062
aF22.00972233218085
aF72.90652219233478
aF66.29237837804511
aF20.661736675795225
aF27.95235476803067
aF21.75072856922761
aF9.237832442450436
aF23.06980482686428
aF16.56258000441337
aF29.530237395619956
aF19.948530396751295
aF24.95063137223813
aF18.474080152456512
aF12.743314648646278
aF30.418475532883885
aF7.303469986629618
aF49.47915892890469
aF7.5613829142107765
aF42.894380364594575
aF19.398903546936122
aF4.447245980494848
aF17.667460348742004
aF24.52298689779732
aF16.07782209939605
aF3.388976788423077
aF14.175360635188726
aF6.937206120389769
aF39.23641592131711
aF3.9319597495961394
aF33.070256659122784
aF28.67351974977496
aF65.18287112529654
aF8.805106460771938
aF19.2942554753867
aF30.018577191116524
aF22.92673226279236
aF18.44664037684597
aF40.58060333321753
aF9.845535790800147
aF79.22764555277232
aF9.973418148597418
aF24.932087877170325
aF14.528971479481877
aF67.71308299914692
aF16.36585503163978
aF34.32682113005236
aF1.0405083299448825
aF7.859176609018863
aF5.593597894529113
aF2.3027702419793403
aF10.234527357647163
aF20.262742420692906
aF0.3816729103411187
aF3.7719962543135988
aF2.074579371996444
aF30.904173407978657
aF12.571956524998024
aF22.852533289740492
aF62.09628989056647
aF12.511713830822817
aF8.332176917762114
aF16.243883425198128
aF21.621332207663734
aF40.827539696811385
aF4.112793262768837
aF24.05941511004142
aF14.212243927796804
aF15.122421081344234
aF32.27688432053838
aF7.707112676218629
aF35.133018458260096
aF43.61986247075109
aF4.484447256824796
aF10.710252206226013
aF31.841785223841786
aF27.441918663305703
aF14.907078637632011
aF22.882171351572605
aF8.413356814494595
aF15.061785161008547
aF21.6026758862105
aF65.1927862253546
aF15.145669667508866
aF15.835694005224074
aF7.075927736862407
aF13.761402778227628
aF11.958175871882695
aF6.447628130593508
aF6.8404527090034986
aF13.86585060923955
aF4.379352653908619
aF5.3466369393383495
aF2.7500318144419147
aF12.36197288105366
aF31.80814482304806
aF40.56296615611585
aF10.068597738144403
aF8.220862587537793
aF16.254315999345213
aF10.89955084774652
aF7.8224456498543455
aF92.27680432273007
aF10.932677002609063
aF31.956090088862517
aF17.537721330534133
aF13.454734751966436
aF34.507870396099996
aF1.9630640383946074
aF4.802895735422526
aF13.510634659498056
aF12.56681613548901
aF25.447382083634004
aF20.384127935471827
aF14.76046646375924
aF23.043368496281087
aF38.99565579708183
aF15.937953715608753
aF2.3963535623008867
aF33.18040336368695
aF15.412188589166858
aF6.0132286957236
aF30.08249887669533
aF6.772589923553304
aF26.17926606873555
aF23.818012783334872
aF84.16392125709729
aF28.494725794146564
aF44.14752499997394
aF23.48519387508674
aF66.14439083866607
aF15.325855908223875
aF2.607092569648688
aF60.97124430838464
aF11.856404589467328
aF9.247668916253913
aF19.970927160255115
aF20.72133465165027
aF60.42326669714855
aF37.25397077440222
aF29.444999993099934
aF26.595109983732346
aF5.6158794650972395
aF11.48902954112958
aF27.378100508704865
aF6.583813371037918
aF20.156241782882702
aF43.61573964864569
aF5.955305001843863
aF28.539865693434187
aF36.04131333785393
aF5.775797278810398
aF65.02362440859885
aF38.41535090464733
aF14.875355628492672
aF5.486486719194533
aF2.221284983847363
aF41.061509600395
aF8.677891689487707
aF24.94881163500599
aF16.25437173058028
aF22.918917041334705
aF11.054643354738303
aF14.59767471245225
aF46.122742904427895
aF13.703374930950515
aF16.94543341720814
aF1.2238665682067846
aF7.8560629907331165
aF12.444399032312147
aF12.31141661520409
aF53.856322364608
aF56.547596558513455
aF29.8208019341324
aF29.56738874584159
aF36.79507146417911
aF4.429295185392174
aF12.162151787128735
aF1.8562040807063795
aF9.643004797988649
aF34.20693270488718
aF16.96660147284854
aF33.08765033133833
aF3.2856990602559097
aF12.554775685060145
aF18.435984654191202
aF5.2213986208278245
aF29.32425888134839
aF40.882867160041094
aF2.084224138968274
aF19.38204285677975
aF34.51908218512502
aF22.462976005603682
aF32.58738279989082
aF45.40635666813663
aF23.69828738757808
aF2.5944785094887317
aF9.118999468935131
aF5.1483763542252206
aF25.886529973106207
aF27.845038266402693
aF29.807846585367088
aF30.254971137402038
aF24.00694342067466
aF8.611832572044738
aF19.24582011881847
aF3.047301463132087
aF15.624031099319208
aF4.9359552686681845
aF9.343232992752245
aF49.01577771110924
aF23.284298956289128
aF22.457813870448867
aF4.471647494132978
aF36.56389632476251
aF9.016036088394113
aF15.115338937626149
aF59.59037887788064
aF11.258512679974412
aF41.84662601587716
aF23.937022959020982
aF7.984008988799969
aF20.84694680969478
aF32.44639305300662
aF7.000837958474289
aF42.77298812203095
aF19.47585214600898
aF2.6574162388748226
aF7.889350895310172
aF11.01065620728619
aF1.7252777165715385
aF17.499642547892797
aF17.193558279155052
aF26.463479128982804
aF17.830910735445634
aF2.4301920465034987
aF76.39685464240804
aF75.74974916688056
aF5.186608780605648
aF49.247793208398356
aF16.630256797292816
aF27.794499506206378
aF11.070416465751485
aF4.643073212631173
aF32.75610546192359
aF14.019791845147788
aF31.71793299938011
aF11.52321141879839
aF27.068309011435844
aF3.0146887483717317
aF7.9734831205815295
aF12.029801159010693
aF10.66791214006938
aF11.462948281217892
aF0.7319411934960234
aF3.4258344238568057
aF18.99556987936071
aF38.512067977338205
aF7.896516450984554
aF22.64687117147178
aF16.484655123913665
aF76.88929456920957
aF10.220680515241192
aF15.383326010174928
aF19.117003041375174
aF26.195479558566266
aF5.799939541113434
aF37.24087000595027
aF33.35104803720758
aF2.127295233888555
aF27.428735128755907
aF22.99957462184526
aF28.776318199209587
aF40.79850506431183
aF17.47545337874446
aF22.965252268685916
aF4.640342168121961
aF22.66928028162959
aF6.137738214411352
aF7.771555815378168
aF2.3450379403704056
aF34.55097977916788
aF3.7195189692709985
aF40.45040111024515
aF22.714236984827696
aF3.631574242531692
aF3.884817039119086
aF24.037503824216508
aF13.067442266449529
aF10.10045913760208
aF35.454327986454324
aF13.822434605349148
aF5.604000740577755
aF12.199799626588845
aF9.65940469886053
aF53.0293832546879
aF17.537132796738188
aF32.149603308291084
aF16.781873754169002
aF11.614283692730504
aF15.192979624480548
aF2.4975494179122197
aF35.449700289770185
aF28.76615764643915
aF4.2575411150472355
aF23.82937613962652
aF25.695559813112375
aF8.740661101232522
aF37.40983424620998
aF33.137857188137886
aF3.904559052935952
aF33.92659374527059
aF29.18186397073353
aF12.958086209789927
aF3.8755243097642658
aF1.7034472281073827
aF14.683897915659552
aF32.809235649910995
aF7.567747773623032
aF10.524580151687788
aF14.551211023156197
aF20.631256814978872
aF5.409896630372982
aF16.13201651661392
aF40.555564957301904
aF23.541435898866876
aF7.3891141642621845
aF31.24939086076564
aF19.569460455243952
aF30.297824167320623
aF21.24527246582675
aF19.01503675104673
aF7.687069452783384
aF5.4745280158754515
aF55.918169993110496
aF43.17868653948273
aF31.793190556653467
aF40.566332107788966
aF33.75492915917604
aF8.185768666163659
aF7.287585459894669
aF18.750795613915667
aF4.8292128123252915
aF9.870372509514581
aF43.32121520412306
aF24.752912979294447
aF35.42527296635954
aF31.570043953889275
aF3.1322137393344285
aF11.475559627950936
aF37.475461442968474
aF16.2955112197546
aF68.09607784861294
aF4.086806123782759
aF13.896201787926568
aF19.502639783651865
aF1.2932675222836723
aF3.8200842196482214
aF30.69272640774086
aF40.52353631983147
aF28.538510500385343
aF9.50379138235483
aF27.880362401213617
aF5.078026298425022
aF21.341260727813168
aF26.34803866669166
aF11.816942316551305
aF10.411159597466998
aF10.032543471960086
aF35.927714628276334
aF17.65071900194064
aF14.587368332757903
aF4.098591176363967
aF23.736225383140102
aF46.406107610321335
aF21.460758844278878
aF6.7020727588007025
aF5.464047481802252
aF54.449310435226835
aF23.486060147757573
aF18.814819836099055
aF15.956616445554516
aF7.533131351290024
aF44.55136598502294
aF26.49329461436705
aF49.12465082306029
aF8.585525507897193
aF35.199366782184406
aF16.559260868293993
aF94.15751688926103
aF64.05620239243999
aF26.236132230955306
aF7.367959727036406
aF34.550806839030315
aF4.6329442440433155
aF42.72387873440732
aF5.201875148254921
aF22.569780636714487
aF4.844669238559959
aF15.791397756421112
aF30.127192820918417
aF45.32166649412044
aF11.02533919769589
aF20.68967157874372
aF43.70634019535235
aF35.414601797243435
aF25.98574128195781
aF0.42875340660433703
aF5.8918260559878775
aF17.469210491411523
aF30.657801726360674
aF33.20678037440072
aF13.129404107007822
aF11.247108867050434
aF25.458855376645246
aF21.38024513699265
aF2.1474301703970355
aF8.941286784450066
aF5.710274972856239
aF19.974952186506922
aF17.401201162277907
aF15.656715232046933
aF35.286745213432305
aF27.400110750672738
aF21.033475709019907
aF25.891824639052313
aF34.44743854502606
aF20.94286986715422
aF6.955024389508722
aF9.922590354791735
aF32.612919581903704
aF17.166970868304077
aF22.295114632534506
aF16.65718860665185
aF11.732317412159885
aF32.077583145645306
aF18.70247683017938
aF29.02561507522119
aF38.059019216171514
aF41.24352024941731
aF14.503752981605482
aF28.347195073144135
aF10.582156556452572
aF50.0816781512795
aF29.68356094662145
aF14.02856893578585
aF2.9969175050498413
aF29.725686727736015
aF23.337305726144535
aF5.758167055048581
aF25.9704509959097
aF52.75273707281926
aF21.048822752818182
aF25.136853958854083
aF5.115419843856865
aF3.8407442105536886
aF21.311780694284028
aF14.0996540135608
aF87.73055495497637
aF9.971512197475144
aF28.737725969352113
aF4.814057704837336
aF24.540515547676428
aF10.221295382642024
aF87.70687866871263
aF15.966250452299759
aF9.88689062238923
aF21.999965167659525
aF6.167312331357107
aF69.49921285920183
aF7.750085406852265
aF6.386818601840622
aF8.08051022240818
aF7.846827500489715
aF20.523782332009542
aF2.4848730496696
aF39.99666978636319
aF15.35092132487629
aF0.8332431155732786
aF10.78475562095275
aF11.573917334782662
aF2.938692387317037
aF42.19025964550401
aF24.07243133634557
aF13.613785777280297
aF14.523077483399645
aF20.612151138667947
aF0.7166069557259583
aF35.34696279568682
aF22.886262208624817
aF9.62602321337698
aF14.648857792898562
aF7.220696944164275
aF40.30402229049896
aF8.011434413789523
aF31.590351425973193
aF5.006982429042217
aF12.277320928014996
aF1.3811221935926463
aF9.142274313917284
aF28.13030655166269
aF6.820107614532354
aF9.429878180951684
aF27.5617229398556
aF26.282276869040054
aF13.492663348550503
aF7.446402139367548
aF74.22875389154069
aF7.516596565981757
aF52.28460236935621
aF3.0271451875581903
aF20.799115075546364
aF7.73533936007028
aF68.18631576592942
aF3.2446965278275894
aF3.9929331946396758
aF2.3756746223149285
aF8.015905927517917
aF13.944909402255197
aF4.956993958432918
aF13.022276101147689
aF28.85460518456733
aF31.8276321823743
aF15.24843501246577
aF34.602900559908846
aF6.708439382037282
aF19.877308137383256
aF16.409964957865164
aF4.796012661339027
aF57.02219484724594
aF6.447996368485728
aF24.35667144399747
aF40.82138952775036
aF13.615642512374134
aF25.302846332335225
aF5.68778797679951
aF30.624089501634682
aF26.508160967485598
aF2.966790687469281
aF8.020306337665856
aF20.476121545242695
aF37.31912182589679
aF11.980122727692601
aF74.03380565430707
aF22.279467584926945
aF3.4176849518423604
aF5.787276217159563
aF46.824663722825086
aF6.8063712924058315
aF9.713902425788127
aF7.832937926714002
aF20.456014885955256
aF47.836446407510145
aF19.221201718965386
aF33.06207840635189
aF10.413696181993853
aF77.92417319286083
aF33.05102383956779
aF30.35119643371748
aF14.320987374101593
aF54.336987047975924
aF2.5997466245811762
aF7.460732814691146
aF48.15862072360813
aF26.922603925559436
aF50.700772153704975
aF21.50631185832946
aF1.564934375766723
aF28.011394207818515
aF17.82756066482018
aF7.678694247022853
aF21.930718891698902
aF11.010220349932537
aF19.27109586068228
aF15.442258512095034
aF28.42126036126845
aF15.733215000338166
aF36.136700550789385
aF55.2187339071534
aF4.416321481168787
aF16.52341708529004
aF31.756348328280286
aF7.194198713706943
aF26.820851294532567
aF16.99165416672581
aF27.15574300926378
aF32.68590247362547
aF6.473190438687189
aF11.055906062018826
aF2.7747746548855847
aF5.1027993483296745
aF1.4089654175003237
aF22.84010762939994
aF34.78437668037332
aF11.24655321734622
aF36.095948556928825
aF2.7599889925594923
aF17.12852867473652
aF17.164341317064295
aF22.06064846807701
aF13.184053787860154
aF28.87983007660977
aF44.07086226214138
aF10.953505275467172
aF25.336969418419493
aF0.5657074843874942
aF7.784318774791277
aF59.65727594121766
aF2.8662250837292125
aF35.62233404632686
aF13.539238436722513
aF7.677253562456002
aF17.64992769615474
aF12.865544719715974
aF14.218850955369366
aF8.332969380837579
aF4.043494661874909
aF13.694715184672095
aF8.00499302214569
aF9.643846309642708
aF29.428906767171494
aF58.86077244644255
aF44.40270267629573
aF66.43766287789143
aF6.995456750637931
aF6.522980503829776
aF46.87201694299673
aF12.228567654578887
aF13.868180558475078
aF2.2866890910480944
aF3.0812723570168736
aF9.165409813637245
aF52.87838204462651
aF2.261161862045961
aF23.509450710968455
aF35.18898300181361
aF11.6850359350585
aF2.5046535937209513
aF62.87222575346178
aF40.39391111303281
aF17.66203349308229
aF6.419381187019544
aF8.440682070187123
aF7.641778883321621
aF31.169561813049405
aF66.33340041183708
aF36.87619193789411
aF10.352943561926931
aF52.107300835644224
aF35.44610565499624
aF6.369988435274218
aF6.277049644469984
aF3.0009725293072838
aF19.256365934951233
aF23.59464890551012
aF32.57267945504771
aF30.636638405314507
aF3.424312806188436
aF21.007205338234364
aF19.50445838865763
aF24.913215561234452
aF5.0903485161894535
aF15.460010748404416
aF23.885280002931484
aF39.35571984930067
aF20.68328789279632
aF19.778154074464684
aF21.885020031206587
aF4.9509875815805975
aF34.55162846967941
aF36.87961274461654
aF18.075709759906417
aF8.393141088264363
aF21.043372419791808
aF27.00904166959473
aF18.91898011969085
aF10.159511493482068
aF20.328410142805048
aF13.137248766193242
aF2.508220865453257
aF14.387889923988354
aF6.501569550621785
aF17.092504501817604
aF10.824911780252034
aF59.27602799873308
aF65.14807255089882
aF57.628346320714606
aF5.45630417714359
aF39.375501214178506
aF10.686485173267029
aF37.124555556396224
aF46.44539554619978
aF47.11140611665849
aF5.030988251326278
aF80.95230326618822
aF24.3518105542895
aF4.655452611005061
aF11.642555975674039
aF26.33329801382491
aF25.099937307127522
aF8.219631153604604
aF21.642027062159528
aF9.369496575859257
aF7.551301528732853
aF12.290020758320575
aF5.3409600117394245
aF44.570607814940765
aF13.866211077625293
aF2.5948835594673874
aF24.552795296737894
aF19.529409844128427
aF30.987053152584892
aF31.241054147171866
aF15.752782711980245
aF5.921461580487124
aF22.065743082060077
aF36.85592585186508
aF20.388456630720434
aF25.579898320426054
aF40.385295606666475
aF36.79899465942461
aF44.30509229000047
aF5.3213124186887395
aF33.12593461890162
aF30.25572641068121
aF13.979803150592687
aF2.724664767107117
aF55.3453991875882
aF37.555075413391755
aF11.980598830444452
aF17.77745862505408
aF42.28677158780265
aF5.068042546216075
aF21.7645401241709
aF29.79675669465147
aF2.2287387722573455
aF40.04717470903059
aF2.6483197849369016
aF19.61095095410958
aF7.319819345276124
aF10.574753795016415
aF12.488328305735461
aF28.726966457219145
aF104.26836926486851
aF19.748351586017602
aF11.605865701305335
aF42.622959974893234
aF14.792254354248504
aF7.649726747765656
aF32.682468676451755
aF27.737727531397947
aF20.469770188485988
aF2.640323703518646
aF12.856306726940177
aF79.27174115158324
aF35.3049399609341
aF19.802815158340056
aF43.08492598967647
aF4.499546546601698
aF56.09336122063303
aF6.122601396162028
aF34.143852768928674
aF9.777009468426009
aF50.16744679998978
aF28.457645526123994
aF20.740110229951206
aF92.06406821239169
aF20.51466545408969
aF11.712972463554054
aF3.107039228315584
aF27.617484548538943
aF3.490756227962749
aF6.721050395019194
aF16.471105290395606
aF3.69407724572519
aF0.6270119540593126
aF11.052435994373642
aF14.364781095464005
aF40.99179298678963
aF0.4010336837317594
aF51.41830633486493
aF25.24899298573442
aF52.65231093977942
aF85.92271630269394
aF25.717221744044863
aF8.792465986325556
aF5.761535261631382
aF35.63549850191093
aF85.75187867841932
aF7.584213289826354
aF23.587998119175335
aF8.850195500205977
aF10.932144897940775
aF55.90324448635307
aF10.403085569644043
aF14.63871852487562
aF9.15394704732339
aF24.161008414585748
aF13.849501381818843
aF6.380666596692806
aF6.7228399099759555
aF21.468068246589844
aF6.266914005178591
aF34.45302846265534
aF2.9420794740316385
aF33.09454589347339
aF3.4388723251709945
aF19.46919087651543
aF11.299209339297786
aF43.00065241327478
aF21.65311406609317
aF33.15416669749102
aF60.121057583095194
aF16.731226601909558
aF41.009817804607806
aF25.290350706658923
aF23.93628877119387
aF18.09929925704037
aF16.56752869504163
aF16.065422526226598
aF40.310231973671755
aF15.69300095118639
aF15.42900469546794
aF11.453661466657211
aF54.52696375199294
aF11.103827756408103
aF19.35905765954168
aF99.4750031824195
aF4.2203284243753565
aF20.703710359642734
aF60.834211110300366
aF39.20010037261805
aF0.8005832737313867
aF10.723180611017257
aF1.763348865758863
aF9.297736510480647
aF42.96082809475217
aF38.16339982112141
aF8.11433613627354
aF37.47001992729492
aF18.966462169546265
aF22.10497465505661
aF4.6919286643785005
aF71.32298588387498
aF86.41390371127154
aF25.389565585512234
aF14.781857398582527
aF22.082484670559264
aF26.52094122403356
aF13.678857458022351
aF13.525180118051503
aF27.144863693153876
aF5.141996992198808
aF36.5600214164642
aF23.391184411147407
aF23.124424636998345
aF8.112012378881877
aF16.623179352297043
aF6.2835263159183805
aF26.604019045383026
aF21.335915653610705
aF10.583728072277422
aF5.111733577775688
aF12.873234208017786
aF31.00196908165782
aF13.517854795996813
aF4.683924349099809
aF2.4446815605555803
aF67.77545059375088
aF62.819659112057636
aF7.9504785750246345
aF35.791246447796816
aF17.453384772924135
aF7.341336225784676
aF13.87171450811501
aF13.612075051088045
aF3.224587364693891
aF9.980237890374319
aF6.280839276693935
aF1.8527823598289161
aF18.782572782396517
aF8.299498147651587
aF15.295085927506351
aF4.983263697293744
aF4.3713070087750845
aF60.45238706223551
aF20.51404979199669
aF24.52724239622054
aF60.03773075319434
aF23.223183865756784
aF38.3568356723926
aF6.043463212416313
aF23.023998468903777
aF22.04631754581062
aF42.172659517260946
aF68.3205822387468
aF46.77427666641458
aF23.123550940680715
aF24.459984789918312
aF33.37527920541648
aF12.013156244791519
aF2.1339390989846687
aF8.420250807234877
aF23.225027579058825
aF37.97801330538783
aF34.79972990793772
aF15.533913992181242
aF33.51432520013219
aF5.786187231146058
aF6.204587232005694
aF9.51426369524746
aF19.142810966019695
aF11.19024800114769
aF22.605215224570767
aF32.587152539683466
aF33.36461047221519
aF47.03578685307791
aF5.090080538116708
aF5.620901503122625
aF24.08184531417104
aF33.82919972036509
aF13.383700006329057
aF30.928265944804167
aF15.323306163741636
aF0.9185325969472997
aF19.176389277863525
aF26.818004815675273
aF32.244307449110316
aF7.6492819860775825
aF39.06191751278244
aF11.613395192811618
aF3.7476750555311584
aF50.72824740401545
aF7.220270664534752
aF13.136407480751092
aF4.59363101993509
aF9.917205217955825
aF15.039284459812668
aF12.279899269331771
aF21.019116036895312
aF4.566161801799218
aF12.207040006938884
aF8.585106134692541
aF21.09717699178011
aF38.67848232135788
aF58.38340445854073
aF12.577953709173876
aF27.528977761211816
aF9.450464737832814
aF13.117600992456719
aF30.08791765140152
aF13.014313840231885
aF5.072092932672663
aF6.134278259780228
aF37.91887403150995
aF17.18013895874527
aF8.449366251850982
aF8.689435682906591
aF90.85141333942582
aF46.556871644782724
aF12.149546444067306
aF11.166272404385046
aF10.932329459729932
aF6.771847811670749
aF20.410635603541305
aF15.479182259477309
aF19.604916668103932
aF28.637987772662353
aF23.508387406258482
aF4.540241948875371
aF23.343950286094
aF22.241550196368532
aF14.479854189545284
aF25.429798547511943
aF8.064649220813592
aF36.67690087025713
aF30.871180719134394
aF45.04191824706896
aF24.816083598406117
aF29.706245195586625
aF35.35851908493991
aF9.350118979575706
aF47.04157211073495
aF18.497416951494454
aF16.605999487500377
aF3.943821611174354
aF43.28641943497381
aF27.12590619697923
aF25.003904816357192
aF5.485639525076966
aF8.287194610989626
aF41.51709637045221
aF58.37467351713222
aF7.915735289847062
aF9.80176127750523
aF34.322115956447384
aF26.765904432335198
aF6.183306288602361
aF35.10397754535219
aF9.512780934450433
aF23.681915820740002
aF14.399239517544231
aF4.702786733523851
aF3.405189387145533
aF8.642761476455867
aF5.0166928304579335
aF75.65138616386227
aF22.963493307527624
aF10.723573012274693
aF32.509339802294555
aF42.549243346963614
aF6.984001672933916
aF26.120815297376
aF33.5497864045511
aF5.863168963285884
aF7.999185608152855
aF8.943709408332756
aF25.59163988076802
aF21.61965941149077
aF17.975749904436512
aF16.60406736787604
aF29.094288665004054
aF57.39726967955124
aF19.92754675716129
aF9.398966119051437
aF12.429102193810587
aF32.988879073947324
aF10.386222445379042
aF1.0991969517736655
aF21.295218135699596
aF20.692426783666146
aF15.697062813697208
aF9.428076272804267
aF7.070083146379153
aF26.921786687147975
aF6.577609339179132
aF29.486898382295436
aF40.53351567400068
aF18.66412782724187
aF5.243597967894124
aF6.226259441003051
aF4.929826197268009
aF8.233855959349157
aF7.269668830072174
aF30.048296525103282
aF8.21854968265451
aF14.113430544838389
aF39.30709266217038
aF13.733158422731869
aF31.60192987385274
aF11.409876858626692
aF10.583038866620468
aF6.190990505756216
aF9.621081264807826
aF31.29432072226275
aF36.95047938325013
aF15.534464088166718
aF53.81974382237786
aF36.335304113122625
aF3.6920749111988984
aF16.516589770597463
aF8.07989735610683
aF13.80227736327264
aF29.211677511209118
aF23.29386550181128
aF12.525760667713682
aF29.384774481423854
aF5.723552386972748
aF8.102263802628505
aF8.893978907604279
aF5.980669577331722
aF29.43793736183147
aF18.238713012270452
aF5.456467681036032
aF4.182541510121824
aF23.304938509884174
aF5.169259292392641
aF9.139830056731494
aF17.754787311448283
aF12.031469922924803
aF11.436575799758263
aF23.07646881838875
aF73.54744996430962
aF39.12879655480318
aF3.706684070986477
aF39.95996645145555
aF16.37500583623661
aF38.65426322009682
aF15.85947532808193
aF55.65259037463734
aF13.758299233000617
aF12.839990043415925
aF24.360134674223332
aF53.44500494374344
aF22.466852606028304
aF22.661160301524564
aF10.79651854427419
aF85.59948712351103
aF48.47105987645388
aF6.376596835474643
aF7.690942362945264
aF2.9081486842943196
aF27.242689711846946
aF25.97852793846217
aF22.27646548366519
aF46.08650776804724
aF74.97994631339289
aF30.482302448633053
aF17.41174987887319
aF12.480785339038082
aF3.6229440867635945
aF10.358587004760874
aF6.807697019418781
aF20.667164894152936
aF8.73621392130562
aF11.905976114377918
aF34.950869017010014
aF10.646596290768962
aF19.509448604142776
aF26.070498663929285
aF14.584124403599551
aF4.787376311641037
aF23.30034294451682
aF34.88516721230992
aF44.07509452632999
aF14.37836859081318
aF22.46266383920448
aF20.466450287306422
aF42.24273296673278
aF17.350371727523495
aF2.7148574463526067
aF5.101447043932404
aF6.073457346485316
aF2.276082418874358
aF21.000655448475005
aF50.95079561317274
aF13.74396662466576
aF19.14272724873066
aF9.167952810349034
aF8.57716861324548
aF13.400952635309427
aF67.68726663032045
aF25.350236901146765
aF70.51278512284239
aF12.411926931734836
aF44.516091967465734
aF10.28523954773693
aF30.868795430220096
aF13.043689958839703
aF14.704528740406605
aF16.05730124291069
aF66.5695026761205
aF70.14935133467597
aF25.099725866539863
aF33.174535391680585
aF7.289625094707655
aF26.375334158142383
aF6.413772763419072
aF26.17266550991249
aF3.1588278432129018
aF17.366868079329468
aF57.66617595495827
aF2.944758221436652
aF7.4474906350687675
aF14.16040888795142
aF6.838772429823606
aF15.671584837329299
aF41.62242091344087
aF3.019965466069927
aF22.80869798968379
aF33.34337352171863
aF11.964651021595902
aF51.09055842558072
aF36.56780246540365
aF6.713421587455964
aF9.256645594018762
aF25.10663279834148
aF29.523336056206336
aF8.301021381463322
aF10.922425260613386
aF10.295542795439772
aF21.199390603501932
aF24.928646193585557
aF12.466058520148637
aF11.374634705415236
aF10.34625635040609
aF15.751507255587061
aF27.351054316429984
aF7.495570136095009
aF19.88924580677442
aF10.744812291310103
aF38.46965835816997
aF9.645853861532471
aF16.761481185101605
aF29.960550278419007
aF48.72545561103121
aF1.1291969217851325
aF13.324252295238747
aF23.853625796525414
aF9.834626179988755
aF18.37412169718577
aF6.355670813581912
aF49.24823454337808
aF9.740649113595486
aF30.857636250849325
aF12.087757550405293
aF24.356067765009822
aF21.14235773570717
aF49.83840136948036
aF28.23865156442262
aF8.626115862985795
aF23.66510662547782
aF12.38849798728338
aF27.842153425569823
aF34.47681498606637
aF47.25871425720157
aF10.231225805162298
aF48.46238975710011
aF11.936700707718362
aF29.436997590274622
aF10.951412123343433
aF8.452817523002286
aF41.25398187076056
aF24.998547828190308
aF16.575123274900086
aF31.29690043616363
aF13.868492599482698
aF4.496859820140284
aF24.023526546261994
aF22.83796710662158
aF5.919375198411012
aF35.31052509550136
aF5.292061423311689
aF2.4248439576834953
aF36.98681406516631
aF95.86308150529452
aF14.97046876895099
aF2.919585827968668
aF15.757494771056445
aF5.784152456827485
aF17.539202205128287
aF15.80557558241388
aF2.2778548409792285
aF0.12578940461753196
aF36.666345947391164
aF5.959202870847813
aF39.441028074640755
aF1.2517516301927405
aF53.64333196813463
aF26.914926698654746
aF67.3579923101759
aF25.050549010471727
aF3.1994813929377646
aF5.399501073421646
aF13.650383612973704
aF2.0816008142980524
aF8.93497893323833
aF41.211278836400325
aF35.301627950647685
aF10.1777257300282
aF30.376823805038676
aF10.514784729253305
aF32.96620154612861
aF27.81116036662912
aF13.262951211642017
aF19.183970765182586
aF8.789016986020975
aF42.9731044147727
aF1.0988592437959568
aF4.3442646674233165
aF18.467335134864545
aF5.6538108269699885
aF40.77314776520091
aF59.10631145499549
aF17.10093887340165
aF31.834843074200556
aF16.946673772261317
aF35.920181520468695
aF19.014213414842885
aF19.829690268873648
aF32.620434419473945
aF68.92376085196906
aF29.06139225170756
aF71.49677314844706
aF7.593530040605697
aF53.68629615128479
aF33.84067441636993
aF19.242624338157412
aF5.983993107210776
aF28.026754978915307
aF23.98445447060903
aF24.668615422031294
aF23.014493253384924
aF35.40429053013772
aF45.06931712478067
aF33.94229697382386
aF3.789395379813953
aF14.627370942502965
aF19.475264888467606
aF17.298455649296617
aF26.411888036349417
aF66.23238083409784
aF0.9710674008290322
aF77.02861569371458
aF53.85430018744697
aF24.070827898180898
aF21.794898906454943
aF0.1965219085593588
aF38.46015337517216
aF11.495004718022324
aF16.693257000790307
aF6.7961121351960685
aF22.05168895373838
aF5.275031808657136
aF9.534055038908056
aF18.92614383277679
aF5.29432227924952
aF0.6529857678813069
aF7.36730624738539
aF45.91196943069232
aF37.01097490205229
aF35.49622562387395
aF8.54983323110559
aF23.52615524515207
aF10.94068079550073
aF13.67703269740469
aF10.915083630746505
aF38.07575028904705
aF9.437688935521265
aF23.160462294056362
aF26.665263444709094
aF60.51445479311797
aF25.480950904869346
aF15.181884759439006
aF25.126095647236177
aF25.553908583880837
aF4.316649675024054
aF44.40578294705899
aF14.328000838581326
aF35.04456186923067
aF42.21314314816222
aF12.570125759171493
aF15.40278310038751
aF1.7165051003299228
aF4.142687548456848
aF8.122366883774122
aF5.705339664277279
aF13.097793153813617
aF35.14741338018043
aF12.109558622916438
aF16.04866261999105
aF27.417067460927942
aF28.947006539629413
aF25.425972309264438
aF21.405595249989364
aF80.39396447103275
aF42.19373541279647
aF44.017772151844596
aF34.28504700707842
aF33.9801113473762
aF16.32559368675112
aF23.06765007751071
aF29.403847106410893
aF35.222356515767466
aF24.51366375125982
aF4.683703173338972
aF18.65647707839355
aF8.001019617551249
aF35.31880441231603
aF22.713337899517416
aF14.728021910357631
aF7.276347210083406
aF105.5717136301504
aF19.4454064316864
aF1.4030493561582615
aF27.24864205035332
aF13.912201070592626
aF22.29693058376882
aF22.58619420910938
aF36.31991298542919
aF25.573943238713646
aF26.33932647831106
aF7.730116307543363
aF24.04816677941869
aF19.571515263741738
aF34.02734496868525
aF16.86037216664706
aF7.732452270484095
aF1.5954247822657996
aF65.5011860085447
aF12.263304763885872
aF6.006209217483931
aF24.879154975232748
aF1.2736217034944113
aF5.471638386083468
aF28.024198865225706
aF31.922203956832167
aF4.8212139656579485
aF22.98296612039678
aF12.638241858090225
aF7.183229418812027
aF67.5578264389194
aF19.01141881426473
aF10.54367335067872
aF3.1133512317801717
aF6.921338333913791
aF8.606669833717827
aF26.47652650754251
aF4.796368820358915
aF83.24757526548036
aF36.166289733714876
aF11.553038670142165
aF21.858080801418907
aF35.34822602853487
aF29.11460007914186
aF11.321944729134438
aF2.2070643414637683
aF35.523321453009565
aF38.064796863573946
aF7.1670086537442215
aF9.341384754630287
aF62.00381807775262
aF8.784952893851795
aF19.565143095500623
aF35.40647102204837
aF10.868378109585072
aF3.7736157516140327
aF3.5618385800650967
aF42.31109838772693
aF35.57419409926941
aF21.727356669068467
aF18.226349781614548
aF15.74310477261325
aF35.964095729389385
aF11.483488448762794
aF34.48560639321581
aF15.320927914648921
aF13.52822298776422
aF1.1550581866171286
aF7.6850992698506495
aF15.54891656348925
aF28.59124324578982
aF17.932223896075882
aF32.72612066836276
aF7.602225101308273
aF35.94721372888354
aF26.037613446487743
aF5.388494997244269
aF14.581963551601136
aF64.91169330899469
aF10.615203149112643
aF24.192278077324776
aF6.065474088072972
aF54.05494195985872
aF16.237047788894593
aF23.136140608303652
aF0.8865367568344962
aF11.733739365712283
aF27.732227865460327
aF3.6530816256594534
aF3.7921924524974053
aF9.232672542882483
aF12.032728310479143
aF42.933931846854684
aF5.57136340764873
aF93.83520476511484
aF36.57266185408026
aF18.504405318388606
aF28.859565739769003
aF21.162612492562022
aF42.22489104415612
aF9.299150161534541
aF6.351528325218048
aF23.608568572427554
aF38.38109168976484
aF5.646526421260913
aF17.24735554802168
aF24.391416978140253
aF35.971635934333484
aF13.710798860362583
aF5.538449120335467
aF10.358870375716036
aF5.234192377688761
aF3.1173661920259175
aF4.292688360662984
aF22.135338853213646
aF83.91080082232347
aF4.283765979869862
aF5.192069399105041
aF35.65752471444239
aF3.398248416693337
aF29.551059537753485
aF5.057406723022961
aF33.62890735242648
aF10.029461094576659
aF12.632694800379644
aF13.876541088995065
aF27.932479118496293
aF64.75512835759592
aF20.25871564304573
aF21.58982026932481
aF44.67464260619921
aF31.90482456839507
aF15.602697564032693
aF29.974200563417835
aF9.166155606952556
aF42.968146225968724
aF12.993925985804903
aF9.004306506557425
aF38.015854544380225
aF39.814253311812365
aF3.2003654112240114
aF20.357195297681347
aF17.78649686361421
aF20.36663439203544
aF30.397570928548596
aF12.448953725665772
aF56.19783276075299
aF64.0367208828048
aF31.419866225923236
aF16.208993082212153
aF10.444295399672766
aF3.5782723799431713
aF18.896759774506567
aF12.5598285449449
aF26.410107031785703
aF78.41182780317752
aF6.864044537960078
aF4.58197054869517
aF6.532871962051694
aF26.48072868506072
aF19.816195256627594
aF35.392201558571
aF8.47479698098434
aF4.274954664962267
aF32.199294536610076
aF2.2800433616341627
aF4.027310614294521
aF7.230607381930487
aF29.62527122561391
aF19.946039046475033
aF20.771149652939858
aF22.110017054055525
aF12.715601739631719
aF9.43648036673557
aF16.667251885411865
aF21.983555617871147
aF10.119685260528591
aF8.71991598713522
aF7.915194786535147
aF88.87990875368469
aF48.98928509324483
aF19.050061971695225
aF19.715676066894073
aF15.134268154190533
aF18.12713428771934
aF2.50585300401302
aF10.858040371364744
aF3.204877261231546
aF26.728914458897794
aF19.78134750512625
aF27.18404123283166
aF1.063793174847007
aF20.21412026605737
aF28.222723413772883
aF20.739731204147468
aF8.784099208001262
aF22.55856647039205
aF11.018373259922807
aF8.520928564015493
aF28.861696935762716
aF19.575918225796283
aF12.035829496656056
aF43.12312127545683
aF8.769325646829182
aF9.979773308778604
aF26.520301334691013
aF41.61497736076445
aF10.476824540569664
aF43.26726956457879
aF31.890878525252525
aF3.6691755351253437
aF5.615283846551086
aF50.52142151101449
aF2.4996094408512186
aF72.3781022088263
aF27.621429293619855
aF34.447184531387165
aF5.455025139808555
aF12.18034785793325
aF5.209370974083298
aF69.90870048312782
aF17.225512941927544
aF3.5960252847847842
aF11.5156321193641
aF37.520027265099536
aF8.5421623594646
aF22.092626268431605
aF11.313483490152246
aF29.19670511938721
aF42.88155762964919
aF34.58593583429405
aF6.3742785587211115
aF13.166974190271185
aF38.034037866007395
aF5.794660808862187
aF12.276481780429823
aF3.5912093309596433
aF2.6880151834227064
aF13.915849727426652
aF64.04046575881338
aF12.430473260199264
aF3.048684266178633
aF9.465906510402617
aF31.519108991645606
aF67.49504882293915
aF6.359653922547392
aF47.45690263143793
aF15.089343337698566
aF30.02485379680927
aF23.25887537501625
aF7.483293082100052
aF30.27958833982391
aF53.05197033346142
aF15.925595641923332
aF16.35959225653851
aF29.684072980691102
aF1.46965527579439
aF35.26918345926945
aF0.9473763369682449
aF22.983232333204732
aF38.25499923285182
aF15.416214768366753
aF11.459952524061352
aF1.3043249038218223
aF23.85436742369649
aF28.66604457347097
aF20.402141606380297
aF5.464826832163092
aF38.85467185462921
aF3.6840869442228876
aF25.999498165613776
aF17.943157420291506
aF29.839489512239986
aF62.86167416315441
aF8.41900744776854
aF12.115145073718091
aF7.979951522979732
aF5.740740401694213
aF28.48499828094432
aF26.791601294214058
aF11.344648219414957
aF34.2073630612735
aF76.57499351011917
aF3.9422459866811423
aF2.13466223121646
aF11.38344081320614
aF83.22579674642382
aF12.4688662317479
aF22.52111327510569
aF23.25654549583219
aF46.09922977416031
aF5.256589958248675
aF17.39714048850717
aF21.87823070006471
aF31.332822994485152
aF14.718546827928725
aF67.4706800045407
aF36.54771145984044
aF1.0659050247553412
aF12.47252323739777
aF9.578464185825004
aF24.26446936396041
aF14.995454597709458
aF14.167826989515763
aF33.735348981971974
aF10.609745837327926
aF20.89274798477772
aF40.92333607161714
aF21.19951434733187
aF3.49140068474164
aF17.895335002763183
aF14.93387791637367
aF24.843801457123156
aF39.47921250395513
aF46.45620865762968
aF33.99004758035246
aF23.98511372386811
aF23.550964026645964
aF9.204308355628157
aF13.60114486915345
aF13.136781721441714
aF36.4968470740017
aF35.50610421958565
aF46.67666818263716
aF41.29508586251356
aF23.14322589301667
aF16.446569509347555
aF11.19329332686671
aF21.045735751218672
aF18.651093997428013
aF12.490010089772838
aF8.444875154382823
aF6.227445420442536
aF9.452437062274056
aF6.458960601654832
aF23.66962304327498
aF6.990678602124181
aF5.305885713137871
aF23.021394466234838
aF71.05592161880844
aF8.642175624481604
aF55.98066599923948
aF24.722704160753626
aF18.26584279617438
aF33.614244829047664
aF35.311212432534504
aF22.847137583429905
aF42.06803800966744
aF7.002509799472981
aF20.637941400091954
aF2.6349331151777498
aF16.8131262366454
aF20.67324932731092
aF28.713035920890686
aF36.678113021313564
aF20.89837439773842
aF21.28226439264848
aF3.133480403441092
aF52.45161623596854
aF34.160457322724405
aF38.69894297339429
aF5.27525948393868
aF14.303767193866289
aF44.381334086600006
aF20.09186392093122
aF17.343108898456993
aF18.710086778750927
aF38.385704021612916
aF46.87000418911048
aF2.679682337525114
aF55.02503446794873
aF59.67956141302343
aF19.29650927314388
aF1.530895585417759
aF30.854882314344685
aF9.754088530093815
aF22.763211736495062
aF35.412134063657426
aF9.043581549757045
aF5.448988513088513
aF10.16732930498462
aF8.139564974225356
aF7.263202060423704
aF3.5738021534933377
aF5.720159064851038
aF26.212690510876662
aF29.20430011535159
aF36.917849231412184
aF10.52736141192803
aF14.292016741282554
aF16.914367839680725
aF11.91616772439078
aF26.34846168888192
aF2.730859667442646
aF2.2585016689524386
aF15.177031928221314
aF4.0000258546552425
aF16.319491876104777
aF6.980669568264903
aF6.2883587911514205
aF17.351639904463262
aF41.14856581495943
aF30.62091800992773
aF13.312950998258392
aF22.799438777751682
aF3.461478273898132
aF11.504184934362256
aF10.939959872840445
aF46.964709051874756
aF13.608811488310815
aF25.836864043625063
aF4.106088225644502
aF7.759018778932133
aF39.76131752569801
aF58.54628592682076
aF32.74920374990525
aF23.15660709282926
aF31.905666819320306
aF30.929435947849164
aF19.237196009212035
aF31.152126850986267
aF33.47340034303348
aF46.08859408769112
aF12.164071190481302
aF14.586346400848136
aF28.353047425094765
aF8.705110209751425
aF40.45847277381805
aF9.387774158873682
aF8.395225901289036
aF48.56829899180087
aF21.83933105470712
aF33.64352308475486
aF59.835083362640894
aF21.850954178080713
aF5.2694809768503745
aF18.4887933758441
aF2.666396300829684
aF28.79471000065113
aF34.60005458013293
aF7.072198506333767
aF12.611477818232851
aF5.505260679123907
aF13.590013730030961
aF10.345339035982454
aF44.67432566966976
aF17.69099885301458
aF2.023365726066833
aF34.5911478230304
aF6.544467328806303
aF61.301361222827666
aF15.592059344295777
aF19.979466119726226
aF27.96698053350415
aF1.969448943660441
aF25.717627481727625
aF21.142130472455886
aF23.1518172493569
aF33.061852270017404
aF43.4543592693061
aF11.969778222978903
aF15.281741795368706
aF9.012682513625496
aF10.861168856021807
aF30.471321018253132
aF28.113698999188315
aF4.348000509696632
aF9.697729039922258
aF29.158307608574013
aF17.188143909760992
aF22.37235969951229
aF8.192981128774443
aF20.385674935854297
aF5.022454899173394
aF51.883715901282265
aF23.52956688710869
aF19.776085875646356
aF30.995618478230714
aF49.876670621471874
aF47.56692078396326
aF2.668684909130797
aF26.222727840091963
aF24.262384912558755
aF4.747073462522014
aF2.9026211164455433
aF16.872625087485204
aF3.8418598539522706
aF17.45940976703587
aF3.545332315628533
aF4.519984764265571
aF25.146167410276192
aF1.5975591995461307
aF59.54365772170374
aF12.667848492000557
aF8.476209983362043
aF21.394705155578183
aF13.605121859599056
aF28.991076760988367
aF32.64420626733482
aF11.582694885006921
aF13.683155320463419
aF18.4069678804914
aF10.788403660594556
aF28.79491470675003
aF84.70798729459183
aF18.620720936042765
aF7.27089978139916
aF12.185066545603048
aF24.396872123654173
aF5.261087152871133
aF24.726140232313217
aF59.72744726676154
aF30.799149689536947
aF11.714019938136135
aF36.57689177785971
aF18.335322888283642
aF8.136293375490807
aF39.06480443384875
aF20.0636681444496
aF12.034517958590218
aF24.044685418245738
aF8.316258132703709
aF23.67561598954352
aF15.291893465031917
aF33.37855581921951
aF4.862604640790333
aF9.901210973985847
aF7.839242671337835
aF52.52472955405492
aF14.427826844521741
aF9.158625271634929
aF10.301196500117774
aF15.528479259654906
aF5.268243179389731
aF33.63370761711106
aF29.987526091765705
aF23.843314830571344
aF21.35631314710364
aF75.07915289915196
aF24.791726501382065
aF3.0097159894742815
aF17.886947623756377
aF34.21014456829352
aF23.27378071211432
aF17.45669876695969
aF14.546948061389022
aF16.47265573307887
aF11.319778074849712
aF3.724705822087733
aF5.677619841065138
aF24.259777996414925
aF20.557409053784028
aF13.686156981162636
aF41.084625258366756
aF5.513350919375983
aF87.50592090314659
aF20.151124468194677
aF0.7436914613982939
aF37.37790551189701
aF24.273997607713884
aF13.80316974704144
aF66.72995486781456
aF60.75367130650092
aF40.583398859594425
aF26.813148105922025
aF0.22387540904908532
aF71.99332181547041
aF21.141439517150545
aF4.6517867850683965
aF9.960290077712905
aF55.68389610407121
aF33.51451485353489
aF43.10889795926291
aF4.964461177305228
aF32.59028460503816
aF32.80139169415511
aF9.660628624327018
aF48.17649001785007
aF58.15198001782144
aF1.8138440887486849
aF10.80126540918202
aF3.3430551798886765
aF13.107459156713151
aF58.49001720978732
aF36.065864350322805
aF27.301328815158843
aF22.12429670068765
aF24.745896341435298
aF44.91827766295868
aF8.628353362738837
aF43.70104035083528
aF18.487122842485093
aF1.9326658017167038
aF25.973777429895623
aF16.4895066708195
aF44.05570382769189
aF12.28753446667801
aF4.163840021143187
aF2.0913441255713696
aF4.7677533722516126
aF5.539460555078742
aF57.07415424858563
aF5.83889452533639
aF2.5933790911988095
aF7.921175336528139
aF20.01785483461399
aF2.338247779048312
aF16.52624559959908
aF2.880057352326766
aF23.870051044802462
aF32.05059470376399
aF85.56046561905362
aF1.970946542926045
aF9.601279095756825
aF30.07253477677943
aF9.016464545213154
aF39.873834905022186
aF6.3005260811263755
aF14.86080107495479
aF78.09870424789996
aF35.2905283645566
aF19.100328309090408
aF23.528114019989967
aF1.344017769373678
aF25.895876451617006
aF17.332420661440388
aF62.629800701872405
aF21.977019297562467
aF13.490370483291377
aF6.60402312302167
aF27.899067754633467
aF35.85423439573332
aF9.53989199241981
aF18.388258620439167
aF7.8286189442309935
aF11.5135427483712
aF46.24113559855145
aF37.472187858211456
aF26.97988598551704
aF24.82869561186173
aF12.806371848218816
aF1.6259777851073234
aF51.30461015630752
aF36.38822666506923
aF11.567691249644188
aF40.37695995048466
aF4.4122887774631145
aF34.008490270647606
aF48.418323960380974
aF10.843269389695473
aF17.754507179772112
aF21.871407592117972
aF8.799831568202919
aF13.141246831194072
aF7.038024745453468
aF9.194127977276343
aF21.541987942846394
aF11.29383746385372
aF30.033099841139382
aF1.8572083420717125
aF32.59501052236086
aF57.46784105825604
aF6.112632257278646
aF38.65716346546092
aF5.967727221192794
aF35.34059511132325
aF14.522068199795916
aF36.63056479382466
aF14.866400057044505
aF2.90335843323842
aF97.65613847279998
aF0.15797322340630576
aF2.9501024864160135
aF6.5633628095459375
aF6.450054638799232
aF17.520125088952156
aF14.793980990102158
aF43.340632220124554
aF17.98162029511721
aF4.507881901051462
aF13.288115051708717
aF2.080209440219318
aF5.5982379676653595
aF8.165184914438928
aF31.103476640906745
aF48.458943920059085
aF38.22975998639355
aF4.908489277307166
aF25.15277801033847
aF41.87860186449032
aF12.787722962312612
aF33.767682986066454
aF0.4527862838365953
aF22.56814536729743
aF51.45734407992724
aF54.94101478736392
aF17.79460638468074
aF9.456253955328823
aF10.131073470971119
aF3.25587440008324
aF10.606101373850892
aF5.845450360634749
aF8.675938822157198
aF19.877119294296968
aF4.185521544019262
aF17.245745140615092
aF40.07791100454545
aF20.402419892079287
aF25.80782875419893
aF33.889958881875806
aF8.130378019717535
aF14.025724438198043
aF20.106935154095154
aF0.8919949132128149
aF26.191474392274493
aF24.6101217906292
aF21.266211975218877
aF36.0012909253612
aF14.245647948687527
aF30.460334357827648
aF2.4759420353560215
aF10.495177219566033
aF39.082925758034825
aF19.275597965532345
aF49.96284697347042
aF12.767079245101318
aF20.493063250499542
aF1.753851134519805
aF35.112772878961664
aF37.90562792042318
aF22.85687703406605
aF68.70878356584375
aF12.921090052073925
aF23.428305289621697
aF45.021031217130194
aF17.279287938375745
aF45.98952503770516
aF10.071772124482687
aF2.256192951762004
aF25.20725448502918
aF73.41509386418834
aF3.796793755909336
aF6.982876149249666
aF10.638537828689666
aF10.407547435808432
aF30.139218681040163
aF40.838892219623446
aF24.322713135031712
aF76.92167980243075
aF5.288700787269105
aF3.7278550877246937
aF49.44093359944877
aF10.674858842131146
aF9.053783078029372
aF40.39904033245889
aF12.983326829869025
aF18.5344657700189
aF23.130934950211252
aF6.5116205392361275
aF44.64715865306161
aF2.7658841223983153
aF42.50032961397048
aF40.100500387988546
aF5.557482739470179
aF4.253790708067782
aF45.371843189637126
aF33.16574851957734
aF31.321163941213317
aF8.155925618631061
aF2.8324231434228397
aF4.944486555437575
aF24.226373779088476
aF7.858414406384757
aF5.418062385181265
aF18.70345422447421
aF28.043860888279912
aF20.79920869082217
aF13.923596456228498
aF16.705517956842673
aF9.160022429352551
aF25.842421721975423
aF22.67529867006183
aF13.985335871636387
aF13.1468896555983
aF38.708426935977805
aF53.792567446759286
aF16.475946547018296
aF5.45106706636011
aF9.868874796834193
aF57.658617072920784
aF29.103268357790785
aF9.880409028965724
aF33.469054344188365
aF11.117403818650457
aF7.332142834636471
aF22.53602445666666
aF40.79189967144223
aF28.06136461782279
aF51.608824566184424
aF64.41660240564826
aF10.296424312014997
aF5.887788785669292
aF24.13976173765109
aF0.44711048397448977
aF33.56528347201404
aF4.185548697292143
aF26.266021205589812
aF10.622063265721255
aF4.9987032270412195
aF5.119388252142326
aF14.96104951815052
aF28.799706843698914
aF13.39867460840844
aF20.76158344471051
aF46.34293874509933
aF31.621791701567915
aF20.881126535834213
aF8.788174568472266
aF13.400962281410056
aF18.90821761147372
aF28.24837317701873
aF10.103348658651115
aF15.816765213005354
aF29.00359499677967
aF21.96096720377805
aF26.73064359035243
aF71.5535389410347
aF32.24790676002176
aF22.350965085441995
aF11.65808679092789
aF24.087852413946994
aF89.03888236409038
aF29.124788339022952
aF31.481143655547406
aF60.78287632554707
aF23.012841582514916
aF1.953215370188609
aF19.695370853730694
aF8.25853043820598
aF26.640990142535905
aF5.513150283655497
aF4.764513239870505
aF17.64677580205223
aF30.87026163406351
aF53.812557830100744
aF11.572540557966196
aF2.1974606058460866
aF25.539109189397905
aF34.905336624379224
aF25.041973332427787
aF8.923092418883801
aF27.482558838694615
aF54.707223956051116
aF34.64191702300394
aF16.34671751080779
aF4.209129598103997
aF9.644942172708765
aF7.7385869448851174
aF8.134530820291639
aF42.57833155855063
aF39.86146677929073
aF38.1322334200017
aF4.2565410560398975
aF9.720706143511453
aF13.168507467631285
aF10.690858139695335
aF16.05333646905692
aF6.977452328054898
aF27.012976063203467
aF12.063077447759696
aF10.165926851679687
aF33.45470837413252
aF7.824071042806062
aF32.34391463209256
aF4.782371347976924
aF39.98160121257901
aF12.818265313889379
aF26.161501853888407
aF4.156807930631806
aF17.891225420175665
aF25.753132835237427
aF9.592197090794222
aF2.0985117064920447
aF9.777889591855754
aF21.16804150315345
aF16.473881996394013
aF55.698464560729384
aF24.354833428885357
aF6.590968581009403
aF23.164820341436556
aF7.3041048555889665
aF12.606897786471192
aF13.205246184352674
aF17.285260781205654
aF40.11023418729073
aF20.383968733849184
aF88.64316467554029
aF19.27024540617027
aF13.885946900835634
aF3.7428964340953916
aF35.56491504717567
aF27.070749514925126
aF6.93618887750875
aF20.37245370194305
aF1.6866243237884553
aF11.354782687984653
aF0.8584074571204429
aF26.121998119383445
aF11.369145727015516
aF4.384922323937663
aF25.991308845452345
aF12.14018149738006
aF13.763915779939062
aF9.735066970309852
aF40.074777050024274
aF1.5926649608277192
aF8.71796596507024
aF32.20844946177291
aF30.597693752839948
aF6.30236550794636
aF27.548217952475607
aF31.000178485807265
aF12.558058607129421
aF18.593114191632495
aF24.040908503565852
aF26.142266509585713
aF24.678221959006354
aF19.982066204446728
aF20.858457715003304
aF3.176038350141132
aF41.201014439405206
aF10.944069080305423
aF90.86407539051115
aF0.2006529671031295
aF1.6419941706198182
aF9.311241766859295
aF11.32309116729497
aF24.096514147238786
aF12.820646544235467
aF47.0229142492722
aF20.7304954957314
aF31.23379034618795
aF72.07923643928696
aF19.676391206530646
aF19.154678852786688
aF30.461673126744287
aF30.384914296837756
aF72.14220003617591
aF26.37628762024938
aF29.238858340125333
aF11.40500541854574
aF38.662637149551024
aF52.38344236092167
aF56.7890075678269
aF9.467275437431363
aF5.711030261764037
aF20.31266455096745
aF44.901726203778566
aF6.619097144968371
aF5.638016487200814
aF49.16976596524402
aF21.249479912482588
aF10.007610185826723
aF20.209953110101218
aF3.8036491422677474
aF29.099023204668324
aF19.659079640148903
aF21.553664327466233
aF63.99828752858944
aF11.863369357410473
aF34.25094547332903
aF5.025164896343023
aF25.276210353341938
aF2.6510527668858996
aF4.152342919206616
aF24.447525017956252
aF19.299876171266707
aF5.396417195547214
aF11.292460756636498
aF15.131090560372202
aF5.563673251041482
aF8.233214884469842
aF45.66736811293454
aF14.79414559936182
aF17.83819972992118
aF42.92003946628822
aF13.030587029433969
aF13.985592830080138
aF6.709436327324001
aF7.8079028292920745
aF32.79721814977131
aF32.90976261244061
aF26.774738930301147
aF32.78374735312605
aF23.78868883683501
aF15.501415729597896
aF24.358582869260097
aF8.82293012418974
aF26.111090582338576
aF15.810406708362517
aF18.605796650631877
aF15.65160133701434
aF42.3995637851434
aF11.336972832234897
aF39.693451457150644
aF18.232764776573013
aF10.229576644596685
aF64.71372198244327
aF10.575846363259053
aF25.81802228002094
aF5.217558617586065
aF2.693874793796641
aF4.113214701483995
aF5.965267927368026
aF56.80269917168853
aF0.8787389485565427
aF3.4144599574982304
aF8.825874253754481
aF47.02935690873665
aF18.270519452312634
aF2.972143790844379
aF15.767895878559013
aF29.301382338990965
aF95.88889923839648
aF34.78691766299964
aF11.502140792264997
aF16.93315747610239
aF11.155466040747182
aF8.48523632667871
aF25.732710326599147
aF25.573202345892213
aF28.10609200843549
aF25.71485605754036
aF50.163924543794174
aF5.339837901143022
aF12.604612843379874
aF12.080623670042234
aF54.5959316574456
aF18.43956218656471
aF5.321338701572122
aF9.039393376594845
aF48.17987238772906
aF7.556697019950177
aF20.078782051247835
aF8.909211962023482
aF6.4936431988913945
aF8.423618147833105
aF15.080164483301644
aF19.0414796332455
aF62.05214806253049
aF3.719885532278592
aF6.796147865568252
aF7.628717375454268
aF17.841029211621745
aF41.22334559847774
aF11.457317215656772
aF27.896526572157157
aF94.30562072165594
aF26.49454079626089
aF32.944534171636555
aF16.646368496041156
aF34.69114322544133
aF8.072412344753083
aF13.077532787157434
aF13.230364389605455
aF11.889428675239563
aF7.570889781632542
aF3.2197786563289688
aF11.688348070369482
aF54.878655895655044
aF12.819347309147421
aF15.943188912000842
aF24.80500578694891
aF20.072071135162894
aF3.8413734995910573
aF13.598877410155403
aF10.741596693074163
aF65.24850785721415
aF6.1459433551035705
aF1.52121298100782
aF13.922594729433797
aF35.219178218400124
aF6.81039347278485
aF17.80176180322955
aF7.88635343691773
aF4.502781079890019
aF10.289884742491157
aF21.473406656802684
aF20.628266120594407
aF16.571942117018406
aF14.456802595131457
aF2.5143243903221597
aF18.911930951841637
aF25.248597626519498
aF31.385500049310412
aF58.233211479743034
aF12.367445995765873
aF34.43920757148135
aF17.471904647467653
aF37.045403718269704
aF15.255158911569469
aF75.37125200514353
aF14.179428472763943
aF39.60713287560101
aF21.215692510218442
aF16.178562565883052
aF16.11821240326654
aF25.30830193909076
aF31.288370268376557
aF25.10630430246133
aF25.315478201178358
aF20.75145285718367
aF4.082553622878129
aF67.27632265563366
aF4.743996754064319
aF42.60352673047762
aF26.701639723927613
aF32.9169145141266
aF24.90423482611703
aF17.29567950060911
aF29.48642805365226
aF16.64712623653446
aF63.15553411471045
aF10.285228693029243
aF40.46615961999388
aF6.614920359426119
aF11.639903183061978
aF51.042574540727486
aF23.677248527368597
aF22.610674960769746
aF51.127470443155566
aF18.73615305343047
aF19.315141147328244
aF10.63948126486091
aF14.505294833887838
aF32.75443614333712
aF27.99054387571539
aF10.83489147190965
aF61.85945120885279
aF24.471231866578794
aF0.154442913780018
aF12.423683212037531
aF15.081919815315507
aF26.729280349285887
aF12.314214907674053
aF8.694493160765816
aF7.58141239156878
aF4.313017994012182
aF36.65658908388033
aF3.222827759269705
aF38.31819650344056
aF10.205007407757007
aF2.8117450388525516
aF45.875579730804894
aF6.630956728090824
aF36.60941298889336
aF18.21180962598785
aF10.736734716550217
aF17.505262440045072
aF44.28771149070686
aF18.55108596681941
aF1.1567476284533633
aF10.045267513305621
aF8.825644984859391
aF9.422234256854763
aF69.16998180992829
aF48.088344609990514
aF27.56864142603581
aF20.0640816490002
aF17.98660499225555
aF5.535444300815155
aF5.648156196514616
aF6.000361938402446
aF5.304838444831882
aF28.470184213917058
aF39.90632178587509
aF64.01920275766658
aF14.957333539263793
aF18.77845637239075
aF14.198678014616602
aF31.707885602737274
aF36.21996114114661
aF28.40553915945148
aF21.317459615062916
aF19.09152819133197
aF6.6980980771273915
aF43.36433847674103
aF2.4907605798901744
aF16.52890797103153
aF1.618921928801074
aF46.382688945627386
aF4.61514696207504
aF17.668446887947404
aF38.970827056000374
aF28.02515369316229
aF24.94962587300374
aF10.587800371333746
aF10.76614689555547
aF19.155532364677196
aF25.415339662021914
aF25.680920220194754
aF2.860963540930762
aF3.966630697923531
aF12.572258564618153
aF63.03927917544968
aF16.28258465588698
aF85.75731923102613
aF8.287531166933332
aF45.35838042480162
aF37.08955770724418
aF44.33551046226634
aF20.2903593428607
aF20.6665319533426
aF36.69783784750605
aF16.11725140808977
aF2.600205783858161
aF70.3066398298816
aF37.476600178115746
aF6.24228936898446
aF13.771227384618983
aF15.209401990278927
aF8.840176730324893
aF20.118060804780377
aF8.00085912188637
aF22.85993561381077
aF39.28494233139243
aF6.585725155421285
aF14.705882644590405
aF69.04961857492985
aF5.261979583348302
aF18.609896036312048
aF32.29821641661505
aF9.05063504813433
aF15.72497237107413
aF16.258709677966007
aF0.639669044349954
aF55.998438929738036
aF11.103350887029691
aF32.76041780517578
aF32.23702986484053
aF61.49504322235996
aF13.467303182405068
aF14.103953777475684
aF2.5551966493379408
aF63.0755746609499
aF5.112494850465099
aF4.553680755058564
aF6.231031987309278
aF1.5065765079029896
aF6.320247931291321
aF9.697506950711272
aF2.883878175524789
aF14.077013403057526
aF8.258584556349065
aF24.953443829276466
aF29.103331818680434
aF3.352523174722495
aF19.683606592798427
aF35.43181848501633
aF19.210873758328365
aF8.885617664517627
aF31.732381839456604
aF14.441680193468878
aF41.46723895443618
aF30.844593667353536
aF18.031482717332054
aF35.35224697186604
aF15.63716382427408
aF2.0484159297417524
aF14.280233820170494
aF28.500237227283204
aF3.322505084753371
aF39.026034693898616
aF48.24882307969969
aF16.617936767846494
aF32.506123566757246
aF35.456077142005384
aF58.69147005802664
aF39.69929102512946
aF42.35390613032449
aF4.396185207153418
aF4.643318389907081
aF40.17966350507851
aF29.781351684576908
aF7.632789820320029
aF12.544802725799466
aF8.823567843331164
aF12.595051737901713
aF6.5038239696872715
aF12.57740114633789
aF27.390969390758837
aF35.709333385591286
aF29.768441548179077
aF5.182298927406068
aF3.183968356758199
aF2.918015659680003
aF13.755833710218667
aF10.456213405133385
aF41.166401406473085
aF10.573465023751297
aF56.35332491802592
aF13.339275458922405
aF35.38439268384448
aF13.405502637062758
aF5.46617496392303
aF1.0735569358208912
aF33.017969176356516
aF69.68621974616418
aF5.47032312016559
aF38.28461891836803
aF42.27634286975009
aF11.679202591388464
aF34.524157064165145
aF7.722006173580642
aF29.7564669176014
aF28.775338444111032
aF28.914784491281996
aF28.780515861540646
aF7.854901092475705
aF9.459961051700677
aF24.44627098514984
aF8.01725324368623
aF11.080580248578274
aF33.23960622137133
aF3.117560155107121
aF0.9998143377231087
aF36.18601154945757
aF44.819199468731966
aF7.782641872691248
aF49.86145937428678
aF9.138841783057794
aF23.946839622122525
aF10.980579193805363
aF32.451421303443475
aF24.301396318686187
aF19.07302351520771
aF92.739391833667
aF9.794325243291482
aF14.800422351098925
aF8.140621704745518
aF19.79755895508929
aF12.630786826428348
aF1.051086074847905
aF9.083204288756257
aF33.16579250735062
aF18.182608860641793
aF9.149555917912782
aF2.7872811733751863
aF4.854988720517278
aF16.695143336882275
aF2.365519799987842
aF13.24474168537395
aF34.942558856935825
aF19.26031979485
aF81.84462348489151
aF19.598466176579297
aF14.607597634057258
aF27.774988387183516
aF9.468976889279086
aF8.731057432625553
aF9.564188842963116
aF41.07475106341428
aF8.537985044253608
aF39.54126487610936
aF31.10651210197289
aF23.776029772415544
aF25.584090407844865
aF3.5244523221426145
aF5.828098091317102
aF22.059439697042073
aF16.87790846113663
aF6.808919165722814
aF6.137866478807888
aF33.23860837023792
aF24.518519021291105
aF51.250156980296715
aF37.93707253496805
aF42.673934632949745
aF23.744580859130018
aF20.502754443480516
aF8.710529342708337
aF7.089302944877384
aF57.81150411788044
aF14.079981698263524
aF3.2079433131616266
aF7.485158315783503
aF6.893719329833035
aF13.5101393530829
aF50.43365690195043
aF8.707090984126514
aF14.156293656334709
aF72.92013522949009
aF18.775251802181533
aF33.130793669649314
aF9.082717064976338
aF32.35853751822088
aF5.38459727004034
aF29.6531203498543
aF25.992863602712834
aF41.335910260909586
aF42.41919133812893
aF6.9688898703894635
aF4.630349969008424
aF17.85272879629927
aF15.09296359130211
aF17.714142940048752
aF41.29348425085342
aF10.473834044063873
aF6.287978747230885
aF15.819877714342416
aF4.580478265348272
aF12.375856850892479
aF11.291219898068125
aF26.844022113600982
aF72.91605644477012
aF4.451838238696328
aF43.14265999008904
aF24.282607068632597
aF13.968500056768793
aF29.670941470282155
aF10.546428962518045
aF47.12512198676599
aF10.919930325056463
aF17.59407771809075
aF29.99462958906814
aF20.77109880556563
aF23.912082066496705
aF5.497962022073001
aF61.542298499378425
aF0.8857119031700096
aF37.10382662757764
aF30.430733103196793
aF6.32864225162171
aF27.05484361946472
aF73.10362331257383
aF14.623804045720037
aF4.546564759499264
aF10.705122579374649
aF35.51188048297865
aF35.22911537336389
aF14.184731763277892
aF50.0027362300476
aF3.8540301852617787
aF17.816964775528227
aF23.20172258450139
aF16.770723264997567
aF8.44941964512465
aF7.729153861428378
aF8.181126898726543
aF42.704640460978275
aF55.99249421337409
aF48.96542355130061
aF8.99159803027844
aF23.554689786866465
aF7.416322645146214
aF27.044967735824613
aF38.68434614269229
aF68.26532291366374
aF37.67774720134234
aF12.64063607587265
aF30.846328423471203
aF9.682368849739659
aF12.894734873735445
aF10.103063384615336
aF3.8883360593385343
aF13.412707339210318
aF23.43952841527255
aF9.224669098189127
aF7.835141794361181
aF12.777324476720604
aF17.859860612694376
aF49.82128786395256
aF10.487757777471986
aF6.853251984669874
aF8.727541049222532
aF13.555074320766003
aF50.11556857396318
aF11.564345844649628
aF1.7969542275686412
aF62.36781077118003
aF8.656891051753142
aF9.547724936339232
aF25.07567831372561
aF28.26396837885505
aF30.31846154322972
aF20.220185973855543
aF46.4692233395931
aF3.606781293694229
aF14.629590304973565
aF7.431077769509839
aF1.1221310177005381
aF2.327772704414713
aF17.572217534040632
aF25.10267361168203
aF12.872385300666688
aF49.19318430220802
aF27.792170235431954
aF1.4295916888222842
aF11.811705668851335
aF36.532111165299135
aF5.210732368486359
aF7.792556368323647
aF5.052209089408942
aF16.908917754818063
aF65.61300051524918
aF18.448947152830364
aF17.96450373274244
aF26.998451592581226
aF8.866777344195482
aF11.917951554300462
aF80.31083765638537
aF9.693838565871525
aF26.475103046563028
aF11.105260207477395
aF29.93566111384395
aF6.821047996919429
aF36.81261060085226
aF6.866221332890561
aF16.827669437724463
aF31.94235996120808
aF0.5441685683010113
aF39.98410645376214
aF23.9223183125991
aF8.237200096966692
aF12.114594486203735
aF4.056457030307852
aF6.195512727730757
aF33.87968820287973
aF20.285781922351134
aF8.645396686579538
aF27.944510861922222
aF43.14424569727606
aF21.10008165524422
aF3.0202976708615648
aF15.63502877485523
aF38.38565685171446
aF11.92129154390982
aF12.841610449424639
aF35.860966835052054
aF12.882678954702978
aF34.763944480023014
aF60.28422269773885
aF35.55427546985934
aF13.757125961211095
aF23.74576687226166
aF1.3682382774720696
aF41.73099075740741
aF10.660191729224604
aF16.989852561062566
aF2.2554509979948834
aF12.336994814004164
aF5.000011859557626
aF3.8977061146792082
aF12.104296596230068
aF7.727049051181189
aF46.694437725999855
aF24.336020829646174
aF7.222342548418695
aF7.432209828233955
aF22.94059054953576
aF21.953287606637694
aF29.476222323485924
aF14.932998786488856
aF12.494640926782985
aF47.868245045045384
aF10.652649083620942
aF4.231927838808186
aF14.115934064038752
aF23.556919743565757
aF22.29972584366815
aF47.213290547301234
aF18.80892611812124
aF24.641142274424833
aF20.069257334017763
aF2.514866940363914
aF21.03949556847159
aF80.02812367900269
aF11.640313699433491
aF20.01261645409251
aF30.70020046771545
aF2.4037152440986085
aF28.933266189156562
aF12.904140792810077
aF43.81987064797565
aF5.371660998494607
aF8.555621532104833
aF50.92716228091117
aF3.5600984050558084
aF12.13537024271164
aF36.36326218460066
aF9.045546647105557
aF12.001877676652672
aF27.716089408431163
aF22.27091572109509
aF8.380218786617885
aF14.159409006509636
aF37.71318115872117
aF23.023200151063957
aF0.20916387865553734
aF77.07249656178627
aF2.775036368389439
aF49.538985288146286
aF24.311495557055963
aF38.477181196903835
aF20.497696258851306
aF10.44300307516759
aF47.695827867484155
aF15.65935290364525
aF35.8238435537714
aF8.813807800658152
aF12.070853779751866
aF26.25092668764255
aF29.72339293361713
aF19.366204379223625
aF31.276515628171158
aF3.8090582235050268
aF22.16554631217337
aF49.415007512656636
aF20.11171585547966
aF50.99398315500908
aF48.37460106212201
aF43.94678602092149
aF4.0032215815926095
aF11.758801280348104
aF41.07687879135003
aF19.21555785761699
aF19.55405983197149
aF38.4161436087075
aF13.651246453466873
aF12.179294752729096
aF76.01503715584286
aF33.64745569428624
aF0.34256249517218784
aF39.361142686134535
aF73.96974043883117
aF14.986204170394606
aF60.69319000865679
aF6.519526223603762
aF11.569284872318319
aF16.473765414377368
aF7.275887232213235
aF23.632311681081916
aF34.3000748053789
aF21.577045478862686
aF23.195301253326395
aF6.697448689866839
aF22.105520028311794
aF30.181897801160357
aF69.38318579842304
aF65.14461482541785
aF38.03239367808376
aF16.752640200136206
aF27.94247060261636
aF35.4148976157024
aF35.22211280973382
aF21.850621127933568
aF33.94202101252509
aF27.277551556306012
aF8.913185577144297
aF14.711076112514588
aF31.28025405050392
aF6.220224156723397
aF21.039084677452202
aF35.34330019279731
aF11.740439310910512
aF27.44952470419826
aF48.11116988762043
aF21.023068272793875
aF15.393416622067537
aF47.87891310787916
aF9.801019771407255
aF54.34532734613285
aF5.259303238785865
aF44.989917085035025
aF24.474241383220278
aF22.90898344384213
aF20.40867511052982
aF21.232779472185445
aF51.12230244767936
aF25.40487507600572
aF87.65958323079118
aF29.56383658585995
aF43.3527718503237
aF6.907624343704781
aF44.54487090268154
aF25.46382950639436
aF46.87832405458435
aF19.504131384474945
aF77.76340044568359
aF13.984200972087807
aF13.867307344103684
aF8.432587693924257
aF66.39118644067702
aF70.61151528894318
aF10.311192675234143
aF27.829526876956486
aF13.575428298624521
aF31.939653179677588
aF49.499128287087274
aF13.914665976862143
aF23.014804133794748
aF6.558347208301333
aF20.67015255108018
aF29.353016505255667
aF39.14235964309051
aF52.90377777542712
aF31.98922836959286
aF22.54620028084825
aF38.5772333238506
aF7.047461667821881
aF11.928981593681574
aF48.46895599538512
aF39.482528679522
aF22.07573044433563
aF6.483864679830104
aF11.637793442829782
aF31.769056084113657
aF14.267975992278688
aF19.06299080931279
aF13.278282645578322
aF4.6176661258860685
aF18.686211682164306
aF20.428633065250967
aF16.094273941149996
aF14.895594047947435
aF24.74173251583867
aF12.945802786827228
aF21.90423793087869
aF25.795045725742046
aF10.419541794960317
aF20.827573398042873
aF30.11493887219892
aF8.979178452018063
aF22.11288015358169
aF37.07519941401609
aF2.8627482114856204
aF42.048570101208014
aF3.4331950105636304
aF4.933298526313722
aF21.743940299871205
aF19.723623511644536
aF0.3570780090478907
aF34.11183240359728
aF33.87746364981168
aF11.638632553466284
aF3.515214686773008
aF37.56528794211954
aF21.602264506165547
aF42.69980390114788
aF7.570859034654653
aF6.230043814965066
aF56.58141894123196
aF0.5380841909777682
aF20.178939178001194
aF10.312473952181085
aF7.207620769033412
aF15.860197663938104
aF6.742852712294746
aF4.330190401140976
aF43.17453388223695
aF3.3957638983809595
aF8.902959053817149
aF38.42657570579554
aF19.085104196109402
aF27.042709078335083
aF27.157300575677596
aF14.770006228613333
aF40.04675884425666
aF62.97672706652677
aF10.743244690609416
aF13.980805873400387
aF5.19960594128327
aF15.641230216104537
aF33.43912149334424
aF4.499617829766289
aF19.398098976220947
aF13.269547351593854
aF11.552124800386988
aF14.40717746613941
aF17.671875925017556
aF18.094712512028153
aF11.118339321308433
aF22.09365988459973
aF9.976043214238373
aF41.13940361147331
aF83.1794711523211
aF43.04727554702338
aF44.54636650267492
aF22.684600288090678
aF82.87157793554208
aF23.21413500845653
aF26.568131129861438
aF72.38998405934228
aF17.61783859709401
aF17.45732099151337
aF30.753027711516832
aF7.120087063010378
aF7.27260780979379
aF33.28395663865901
aF25.55597119475362
aF32.29389856048826
aF12.939694034355632
aF13.318852024705453
aF51.155197447217546
aF10.744793013104678
aF2.0338605257064892
aF3.562349770504646
aF9.172712345287156
aF12.913670835217626
aF31.46022339990523
aF10.238415561936373
aF11.595596210458625
aF41.91675859120947
aF4.473163418869838
aF1.892165075853138
aF18.04095207213092
aF14.956674875331267
aF0.762285508860634
aF15.846724170972674
aF40.532762075589446
aF14.551975411415098
aF4.877680300166823
aF18.991273321581858
aF4.264316971790282
aF5.9501184286903746
aF23.311875153855862
aF28.744353472783512
aF20.211373247261115
aF41.06456893684517
aF0.6296097421164082
aF39.255754255799374
aF23.718206057588123
aF8.066463152586262
aF28.24127655216941
aF33.73365099621632
aF43.13540343944588
aF3.249529274385679
aF5.739729168025714
aF33.3374103604989
aF34.54304537964613
aF24.26500577007343
aF2.9691105344347757
aF16.805791057716768
aF49.18996621242778
aF27.689638242596732
aF8.464560055120616
aF11.471911362673804
aF16.682677327020468
aF18.691598993561453
aF10.66517218122751
aF11.56860390183952
aF24.255542706488637
aF13.84154166087471
aF1.4826272859035692
aF9.3326733882497
aF6.12218521847762
aF1.5325417093049183
aF17.770477175916596
aF19.383338106364555
aF4.617091512706865
aF32.90044984453842
aF23.53607742875206
aF34.427649148661615
aF3.930892607190544
aF20.498215266610824
aF6.864879735744277
aF15.922527169530792
aF3.323545692964892
aF5.869777323805005
aF26.4270920174002
aF4.744253926786565
aF8.60618538510054
aF35.470529024346206
aF7.549667001348329
aF63.283980002131166
aF11.774628892834706
aF56.441946140260356
aF77.39076802121761
aF67.80708536666813
aF17.890737210044463
aF6.8659098295278405
aF33.759475277571696
aF17.326912417952705
aF21.24190988427756
aF82.01086299620968
aF9.803998564002761
aF0.4478694658709172
aF4.065675394504918
aF15.886852431079003
aF26.1874394495698
aF31.32244144975348
aF3.222237840970893
aF47.827541391680384
aF13.942689774131745
aF14.57774115381218
aF6.863218069277054
aF11.242727776180383
aF12.692241586189729
aF9.735374883940262
aF9.912977345021961
aF7.194794924999015
aF14.265717445315854
aF13.34752603437799
aF15.98798285447663
aF39.160521864399826
aF19.464299802364284
aF10.420059370037642
aF19.95331851075807
aF11.602819512892015
aF17.87776012531358
aF69.8864327857437
aF8.707188114495487
aF13.344594594859666
aF5.929120153610894
aF27.51025597764717
aF14.917497593735252
aF13.833885700479408
aF21.549406142367037
aF3.1397259802759767
aF19.51270167181725
aF29.90066435392787
aF51.72566220716537
aF12.042219018910266
aF6.553780611955706
aF8.382714174591873
aF23.412795169441406
aF6.092517535543666
aF8.815686793388025
aF13.596615546959491
aF8.888344996769305
aF93.22458002678825
aF30.896882491160675
aF18.34727010202101
aF76.48683129240635
aF22.384537232032617
aF54.30876759328685
aF44.292531315853495
aF29.084882999557415
aF31.5382578935701
aF5.272556536060286
aF30.571327573905055
aF11.9224244486781
aF7.390921457322952
aF10.845334127315638
aF16.257340981733286
aF15.42369293004934
aF32.09589193144126
aF19.46153096538562
aF22.804030112417458
aF2.9097087743517873
aF30.827185196121217
aF22.932076256648084
aF54.168090743387395
aF10.777309424335352
aF13.572819472507838
aF2.4014112016520115
aF20.708302821112152
aF1.3075058462561702
aF5.891201487016612
aF14.624889163468676
aF2.51052113029405
aF8.215252992803864
aF13.825865108397847
aF2.7614735132978945
aF9.110122329078187
aF7.531260245168343
aF21.896384702139567
aF15.694964127167388
aF0.1652763241693266
aF3.1850728148492142
aF10.769978568520795
aF2.244512434762521
aF8.973527574552937
aF47.324999443278365
aF15.240116350978788
aF32.97196721915035
aF3.7157919430161863
aF66.93688818580678
aF14.952451033786868
aF7.234622138115881
aF52.59756046843193
aF36.70038806037281
aF13.142682606219006
aF11.983424452448261
aF15.624780208513135
aF59.89419021363861
aF21.05466383750467
aF10.613678490202755
aF29.264716165697962
aF3.6489709305679576
aF35.42393741491429
aF40.193937905840585
aF6.235722578298876
aF3.173416293100205
aF4.13367481451788
aF16.888436267202923
aF49.50749258231354
aF29.044417512410593
aF2.282044219638742
aF41.76318811637515
aF19.413796268758947
aF52.51689762915992
aF20.066801715704695
aF19.442769855942796
aF14.539674240288281
aF19.909730149256113
aF9.08512513911539
aF15.869379444255454
aF25.142107895781606
aF18.578532619376592
aF12.606747626801834
aF37.83760117284884
aF13.665213766541685
aF23.461968251626804
aF18.6320486819864
aF14.91308614017557
aF62.001162280203296
aF36.3109489244829
aF72.86155324952517
aF26.90780533489049
aF24.258940208024256
aF51.61916559038228
aF26.727096424655805
aF12.962319704048873
aF4.95707921341999
aF15.188487384310678
aF8.07868773600786
aF6.95276581107715
aF13.585348843297478
aF37.8888335527302
aF37.57129307725787
aF10.421464666423082
aF11.847492763643436
aF11.29585638050546
aF45.39983335693201
aF27.863495989653696
aF29.415147839536978
aF28.450644633155882
aF3.0811771274931714
aF23.72348620173448
aF21.82036281178454
aF9.083155877149041
aF34.236805295316216
aF7.4031741960599
aF29.016932728918462
aF16.988309019768067
aF5.3300256157154395
aF16.28466107991093
aF24.23680541240003
aF76.32325892406398
aF8.428927581839089
aF15.424456929258945
aF45.16817971265573
aF15.288784385297992
aF32.90374676101925
aF4.187237770100105
aF36.67002601990107
aF5.682121425661098
aF40.72393286339125
aF30.444375148129
aF7.965452547948644
aF17.524454386951895
aF12.280063082783599
aF29.845231846208804
aF18.794631680825088
aF24.250854047224205
aF5.173926451703218
aF10.797880480508141
aF4.70975245253521
aF31.811361148224147
aF29.985979945557613
aF58.10702160997135
aF27.97524171314814
aF5.210148714813287
aF1.4218980902723029
aF3.888849218759898
aF29.513414810953424
aF17.59053849705041
aF76.89609017693998
aF70.66561898276902
aF0.337792665564889
aF4.04853848099237
aF4.317681111138175
aF24.43819479426979
aF28.781821220855793
aF0.7114119810676093
aF53.47706826896524
aF71.41617665785512
aF6.3838238278204225
aF3.67509542415209
aF1.6605049330163635
aF4.069415071870009
aF37.11032026289209
aF42.311599959051904
aF30.34557939862035
aF27.95861888758478
aF6.244312515977259
aF56.43604866849336
aF12.797155605576762
aF43.36594700959105
aF67.64225081703351
aF24.883110991957274
aF88.40580644836878
aF25.780052345126023
aF12.441583469410226
aF29.791142849947246
aF33.386544680342894
aF26.046774128152382
aF30.884861465544844
aF4.447500204066089
aF24.51811005286149
aF43.37245681230649
aF8.003531123520856
aF34.33648508309456
aF14.088728843873886
aF5.097695324103448
aF19.357491501182103
aF2.369762212827641
aF30.189458445501337
aF6.865809886842732
aF22.324064883473614
aF19.66165929240265
aF29.454679367562786
aF10.484763861667217
aF2.838715207767081
aF32.60643060246093
aF25.018817606937365
aF22.88102693776331
aF37.54166291751281
aF32.48970716941446
aF30.81194522977137
aF12.742822425124906
aF16.686407438218005
aF8.749103762124996
aF11.202676671563104
aF1.9226853455160104
aF8.280377311619189
aF12.217101574948803
aF34.072102027981984
aF4.207738584990137
aF34.952045660653624
aF14.678075987400643
aF41.60779864165856
aF9.034627732603566
aF30.086325999944226
aF4.887325904216149
aF85.64884203191028
aF55.65041225815496
aF21.38324541709669
aF35.42735682143728
aF32.655880602445144
aF43.37549630566425
aF9.703327469219555
aF14.076242709831202
aF27.201275200470967
aF25.510542302859566
aF21.923975427583866
aF17.6893235498397
aF29.358291871611836
aF58.2650680647223
aF26.542432531695617
aF4.243714220437697
aF16.14365203977773
aF14.202386152580223
aF8.104908324934318
aF6.096724199906565
aF24.641189552531905
aF16.71261447340059
aF39.200526616156225
aF9.255676451919522
aF27.965780413880708
aF61.01850263239769
aF2.6119771516667947
aF9.43278477234896
aF20.256315530860313
aF21.052386013303998
aF15.063905424434727
aF3.820818899978392
aF51.810576165674064
aF12.478871231448192
aF42.17840378221749
aF22.600268357901097
aF4.186514374896253
aF3.467787851435076
aF14.715745551854068
aF43.19776337146164
aF19.418271842824012
aF1.0500933902749052
aF32.95610649704125
aF21.72325273764234
aF22.483650405411556
aF23.477631823901476
aF19.405480670248046
aF20.812484177611232
aF23.130174759462644
aF62.39969965006331
aF14.039271407492135
aF35.36530453933641
aF21.67125993343282
aF28.606368907225153
aF2.2298857952119304
aF18.328097033593636
aF14.255240128343424
aF27.08520780826747
aF7.957427415217606
aF37.60076689142907
aF21.96821133719196
aF38.269595157072395
aF12.04354221822981
aF15.875654837261136
aF21.68913535048414
aF7.714060643931318
aF10.516063903601939
aF2.962080310686939
aF39.60551168518465
aF39.5406667093441
aF13.805156633320289
aF34.187619724504735
aF7.625916166280642
aF15.861776757300914
aF26.830491771245292
aF7.768804352550133
aF18.86735978301597
aF13.652510297694091
aF35.84227399969158
aF23.837790603812728
aF25.435579996358552
aF50.986517006612516
aF32.420878455809365
aF7.045497707721427
aF15.350750992361258
aF14.130345652794377
aF35.062072963126234
aF30.378913361483487
aF15.960141163083863
aF12.437380980166514
aF3.665049505278909
aF2.836909959563957
aF12.24075255949475
aF25.960026218476266
aF22.475366033483304
aF1.974797392238621
aF11.651797745602607
aF14.048225999622542
aF23.707939208418683
aF13.698291047823961
aF14.56098972064937
aF15.682377493026573
aF3.3541918036612155
aF69.238994540501
aF47.233033507604574
aF6.800147566368079
aF6.649527156172494
aF11.585068452070828
aF43.739666298641744
aF34.1900206620393
aF26.420309555463753
aF63.479711716963315
aF9.823459465329929
aF27.168900459817024
aF35.090583908242664
aF28.73902142676414
aF34.10835801160222
aF45.58722511945776
aF6.538283340094013
aF24.296621461728872
aF24.1105852636379
aF28.41847834786301
aF31.594403466866744
aF10.138819139314384
aF3.202032820450098
aF8.35538217288702
aF6.063598598980082
aF2.0443254155806567
aF41.16412362312736
aF32.93073436175317
aF12.829562290302327
aF63.22885743106137
aF19.991898709567295
aF31.46441827258089
aF7.21432166070113
aF8.68331145305061
aF19.48616821523977
aF18.601326978234788
aF11.22758721151536
aF12.318930201410762
aF34.73027399454445
aF5.758887881952383
aF19.416030827944013
aF48.056231201979806
aF14.73665699948673
aF10.673189181514271
aF72.4480324184531
aF19.84343593006647
aF13.299179735532373
aF1.0247974133084816
aF1.58518044512464
aF35.85080186297612
aF85.4621510757497
aF32.233519336013245
aF6.8067961201850204
aF13.171380603538587
aF7.804173595576712
aF12.73623025879567
aF7.8666190634107425
aF19.556766269657206
aF12.05898855521594
aF7.861306615530094
aF5.851790666289902
aF18.156497647725494
aF51.4538581590002
aF47.50450095013584
aF42.59093877376208
aF10.384206290401698
aF30.028131123122467
aF30.578930496084944
aF39.329279928904654
aF29.21671877261225
aF13.900685504724045
aF4.037080548919773
aF24.24354027351091
aF11.484268733136997
aF49.17742838702633
aF5.605008022461387
aF6.1291578061192995
aF11.434295052684654
aF20.44991138930798
aF6.6963205535894
aF18.55342881959494
aF10.641213714604795
aF12.46570461267827
aF57.23116980531414
aF15.283519341219264
aF53.7240902488191
aF24.94933229641028
aF19.49902818116209
aF17.290111145546575
aF20.077402672978497
aF17.264692928238848
aF12.616438433279292
aF24.21262940315871
aF13.60962706328622
aF7.002404033241728
aF27.294727507558452
aF14.022668424193318
aF12.410811567487027
aF1.0829766260437805
aF52.944622301510506
aF35.91274702743755
aF21.64365176094762
aF33.98476645973277
aF10.712204372020137
aF18.95412918202218
aF8.031960427279317
aF26.342413817292112
aF18.18781110841652
aF36.7988820510724
aF21.581880088621194
aF19.062178693904876
aF22.401559609365638
aF10.353191272794684
aF14.608811136346302
aF23.944098812974158
aF29.508153494707095
aF9.350345472918454
aF29.081046753515533
aF11.863900161011808
aF7.558730029830628
aF18.547591535781518
aF23.957240710914537
aF4.111565199248558
aF0.22843607667431312
aF5.264511145714239
aF1.0531280981668616
aF34.4398981334759
aF7.899444058746422
aF4.418965852292527
aF53.31876532772431
aF37.086233666787976
aF3.028629777121488
aF8.87806808334345
aF60.38971229486083
aF37.39999554289716
aF23.911901991835574
aF29.94609713006663
aF3.9011418864378182
aF16.574454832414403
aF6.884011384636925
aF7.370442790626003
aF45.3279000465283
aF76.9539961012058
aF6.061775076703593
aF96.27225131107521
aF38.91231329757094
aF11.403931396985916
aF4.6122115927725815
aF17.476195079664446
aF35.704517279378884
aF30.876857468135075
aF29.456615338053926
aF14.918151707501144
aF6.478121604195255
aF30.42401538950256
aF17.85528702686705
aF6.770329364927014
aF20.528191735334975
aF24.406617503909477
aF8.901005737521988
aF9.972024703876597
aF32.42302572261641
aF9.635035573394063
aF11.427236905151158
aF46.80659028870765
aF43.16904699860847
aF36.5297699923512
aF9.526489750976724
aF6.173702887256781
aF41.38941993584817
aF0.6510966510849943
aF3.291671214987903
aF13.270456857264518
aF15.923630704552608
aF2.8725831776319524
aF30.567754664075057
aF11.593956148841825
aF9.137211204888024
aF75.50023824393469
aF29.168037223417716
aF29.728658518918355
aF4.7705316865741025
aF6.80046893289037
aF54.10526246545699
aF26.74933914924707
aF1.1378953989775704
aF89.2649728572929
aF17.10734940857736
aF5.679387118698932
aF13.50237550510615
aF7.280616911766795
aF50.406731197568796
aF8.351226353356084
aF11.522556716758578
aF5.836015144095739
aF7.83195185043218
aF9.52652614769102
aF22.60275371970897
aF18.258718843809653
aF66.89115982873848
aF58.154281631037655
aF26.63205624930466
aF1.9087744638062596
aF6.636712618225171
aF1.0130166860366447
aF24.624939581762973
aF2.023884779168404
aF25.525030584769254
aF35.29434512993455
aF9.189887679438142
aF41.50119705467095
aF9.050955188876776
aF31.478708761937597
aF8.289736672619728
aF35.23246709724499
aF27.521187576121033
aF28.359668218926025
aF8.509629020862064
aF42.76038091029717
aF7.366105731545669
aF30.674289249476903
aF38.62881141393324
aF13.454387764649574
aF12.54983688749543
aF3.6266844643957734
aF11.495651836467834
aF2.845592418356545
aF3.159460925984205
aF16.00335213717656
aF18.361376413207907
aF5.39472841288411
aF18.652469554388706
aF38.17689360574273
aF16.776071902612856
aF35.029857200066665
aF16.255767312315374
aF26.029981568483365
aF2.592442523675838
aF8.74564610653794
aF13.568150433579877
aF38.523068499562704
aF4.756586518467434
aF16.57003646821965
aF47.35027681970921
aF19.00969839750041
aF31.411904798648475
aF5.785495358642375
aF12.180810480981922
aF38.91936477753895
aF5.9077151623714315
aF12.281903014148451
aF15.639109378917837
aF23.287857147551293
aF79.22712140744545
aF8.686648200161452
aF50.80727023435558
aF58.7365827692268
aF42.473366901526134
aF64.20423120987013
aF21.185920659226536
aF3.854353603897484
aF59.109166192263466
aF20.532728780169414
aF3.1379192727647434
aF47.38362824999829
aF9.515961720840636
aF21.459500301540785
aF3.4111457415985877
aF38.275658067049555
aF4.040971047425357
aF12.599218079219648
aF29.678058983301906
aF4.627279229822389
aF24.998530063017512
aF95.64387844987534
aF25.066747828908937
aF68.3991606999384
aF11.026399301917035
aF16.665652533786297
aF17.208173039192857
aF0.6784284955479234
aF25.418669520849694
aF12.81472166070394
aF9.956242289180967
aF16.975995288325894
aF11.435454867607062
aF12.342206952050985
aF44.10640390590969
aF25.889688658921912
aF8.361593901848629
aF12.695458324714386
aF15.125373351924905
aF11.648906458803557
aF10.237047491565527
aF7.241585249851505
aF7.242794433746877
aF17.48596262248439
aF20.229597103522362
aF16.831864252930693
aF77.62898744890056
aF45.87270052706603
aF16.542281817857774
aF0.9316991367546463
aF25.456931827877852
aF25.077284249218195
aF36.14734759278583
aF21.982218242943492
aF43.85934921776514
aF36.496409705834196
aF4.31506508785842
aF30.450876849829008
aF14.741656509996885
aF1.1809104929358945
aF23.04828634364917
aF7.14251845298707
aF11.921930887849884
aF14.313741532990981
aF16.70762257045498
aF13.725264763429626
aF7.968513133838075
aF69.6528888466096
aF8.14713102431088
aF11.489790801216204
aF30.79797709886329
aF57.52113550239349
aF3.333807484090669
aF14.373704760120031
aF42.148957032824875
aF10.734208581814551
aF30.055324270112138
aF1.5291423724963606
aF12.6863007948817
aF38.65117388247912
aF2.526587911976574
aF1.9834083501750632
aF8.655048551779077
aF4.9695620759526635
aF25.76982325792333
aF13.065654292813502
aF10.293447466303817
aF29.41060044369712
aF24.109340404897544
aF7.4977608403319005
aF23.925015122833912
aF9.152577203635822
aF29.941946772835514
aF51.81407100490406
aF33.055555948080816
aF15.479141207382257
aF12.701374873768026
aF28.473491315124257
aF30.173133985258154
aF23.405209071997263
aF15.064315624097624
aF12.403808179376558
aF17.912585598160124
aF61.57466523876546
aF17.72816534674802
aF27.94542778138844
aF40.28648986671861
aF8.996061178977161
aF5.5631941315580775
aF6.46156519954791
aF26.950477094360096
aF17.372510277829665
aF27.444563721692017
aF26.76039205094098
aF37.629034208688644
aF73.487572216055
aF12.455073345678276
aF12.461569788624812
aF38.76258667602969
aF57.232868473235825
aF14.77046822516118
aF20.974114171744926
aF33.44653965664421
aF41.70677178451305
aF20.736360094864757
aF5.948170408340867
aF35.595292139458145
aF6.498151508549552
aF42.123410942989764
aF15.255969670114528
aF20.66287193827415
aF13.193997504286358
aF22.237532506826454
aF1.8030533494033703
aF22.66413030599639
aF35.534800981790724
aF19.365333596123232
aF5.2639677765164565
aF68.19340436966773
aF1.7532708339444578
aF49.324918337292935
aF13.6643187507716
aF1.6819294353182177
aF33.62628624931946
aF76.06645378256843
aF48.17210722197059
aF27.747211587350115
aF15.84944340492131
aF8.47021851159018
aF39.077170302161925
aF6.649418760445346
aF10.577256734970176
aF8.03199242519579
aF1.9391896145581593
aF36.5142851617556
aF31.500018816083774
aF5.348552778632408
aF21.13994815567595
aF9.421198400649637
aF28.116473266158152
aF18.60514917715658
aF36.079408477415924
aF23.15647605622901
aF13.95831201370291
aF0.1406755251612592
aF6.989880987669261
aF14.185936219022205
aF8.531578768328808
aF31.997578317475412
aF3.9554450956024474
aF22.731696841363977
aF20.768488573182726
aF11.268644070583058
aF9.657990227034073
aF55.84347940971013
aF13.321507701478229
aF5.848729064506162
aF58.193570048475564
aF45.157113451820564
aF23.77224480917761
aF33.25732352918858
aF7.040469977596588
aF21.39983667331642
aF11.539555374100592
aF0.8779038243881956
aF19.986060266948723
aF14.025446083579288
aF10.681577270720744
aF34.32508153006407
aF25.68607303648636
aF14.354732648480637
aF10.982989456619046
aF6.298415216431295
aF15.547369021172269
aF9.164486356327219
aF64.74165392556135
aF4.754913463170307
aF18.398564232626246
aF15.52593998013306
aF3.2555626037306196
aF8.48590797827289
aF18.418995382382306
aF12.01496824387906
aF22.62693671556106
aF18.445003738906227
aF27.969272147500075
aF3.888212562020742
aF3.765608626755852
aF5.086893260648187
aF33.29560951417422
aF46.24886230820596
aF16.425566641330427
aF21.548032390323353
aF13.850498729739043
aF25.15275936893191
aF5.224135215941238
aF23.61906746075443
aF19.265496163273625
aF44.5117856067551
aF21.303614492848435
aF37.748974117992965
aF9.614733633920343
aF44.1851514578014
aF20.035020858142698
aF23.774421065565235
aF47.98417551739324
aF9.903620358882694
aF9.47204359919734
aF49.08455934954727
aF33.018952504703186
aF11.319742583602869
aF32.91761606002493
aF35.27809018877522
aF16.79925016095583
aF2.040614137328633
aF3.055412416685391
aF18.470018727872837
aF44.94745765950659
aF36.948280288411
aF35.97580241989694
aF32.56467461291473
aF35.228092866565795
aF2.36241578544064
aF28.676203068249293
aF2.1730890043524225
aF11.51901944389183
aF9.942920559743744
aF35.12642089248085
aF8.278446591857644
aF18.793155632940778
aF29.00273058047482
aF41.21155223961247
aF12.44039784463648
aF4.321300028972858
aF4.741515803484584
aF11.54839200350058
aF11.14127559576135
aF33.45097427918001
aF10.520144825618209
aF2.4171040037451332
aF19.56223495805145
aF30.47139745432371
aF25.582353304590587
aF30.07114562793978
aF4.310793136969674
aF24.502418748910312
aF12.05336817930679
aF11.528366833786338
aF65.68201304682627
aF85.42194347023212
aF64.63649649344245
aF8.915704296541524
aF2.07445799018405
aF18.96242967190858
aF10.059787773557002
aF2.530016944630846
aF34.02204933625529
aF5.206359910206967
aF26.15476401486487
aF8.108188706745189
aF3.393401996613526
aF3.9263545690222017
aF5.856139501757639
aF14.476564747404462
aF8.089700206987953
aF7.6560187937858695
aF37.754224795915306
aF16.50965101353035
aF2.0595603443097854
aF20.66167414269996
aF21.339688819121136
aF37.54916346602971
aF54.23322285072556
aF12.720664585639993
aF11.351912773998112
aF10.361953561088228
aF26.038493124695893
aF13.40649138700691
aF27.013388007980037
aF59.86115903448771
aF2.649828979658577
aF23.108543285660897
aF27.209465491744133
aF3.8549353472610846
aF13.3919559802893
aF32.70313622492118
aF13.09689100378008
aF7.115936515510951
aF19.959842159888147
aF5.156115541853525
aF43.857091126413316
aF10.495657754272834
aF16.35068722637505
aF17.97120855815591
aF52.23653503562174
aF29.850495700207393
aF33.43644357570647
aF83.31098152408512
aF10.424021063210164
aF25.018666355930915
aF12.364304115963371
aF31.056010323037523
aF7.676294392336089
aF28.057253431581525
aF16.153309609592753
aF5.233305504247982
aF13.058823989223542
aF31.561023848618706
aF59.03575962400123
aF27.65386202246532
aF36.07435475116218
aF7.66964909240916
aF4.042105152535672
aF35.327011182883155
aF77.1095179246389
aF3.3668120781235698
aF63.779251134925666
aF2.5607432125098692
aF16.294641847951308
aF80.96550837129222
aF9.99265682002033
aF10.325481188009714
aF19.969339763293302
aF13.556004435560144
aF21.890981986326167
aF0.09853390227304314
aF74.35247420137549
aF14.138301624150344
aF38.05569179492562
aF12.368951742243382
aF18.430136207473282
aF18.4243885194617
aF7.785320530163124
aF7.4734089886378845
aF4.778794879805291
aF4.347735110722298
aF24.816893863719724
aF2.8818101303750483
aF21.67630346683573
aF24.89875516592116
aF5.237273063561966
aF7.85693560418829
aF23.177046784479604
aF33.41956750549103
aF33.886175045936604
aF17.481815633089266
aF92.82688787112798
aF15.390190181745721
aF31.114169630416963
aF12.980688612866716
aF10.266668996610852
aF5.561880449126458
aF1.49505325444508
aF9.621356414792613
aF10.843820639071067
aF7.830886202695471
aF39.33159320990482
aF30.138021380684297
aF5.169195995394767
aF41.822762429488826
aF15.522384173431748
aF8.69578102815549
aF7.2805512360218865
aF11.705976661333994
aF13.650242050154306
aF33.330299901153126
aF24.20184549297667
aF24.046178675863807
aF4.84050251626602
aF59.01926563066531
aF11.671745099476071
aF19.22560147602725
aF2.23495489780142
aF5.915058674990215
aF16.130367689653752
aF27.874698964243958
aF15.921009425314875
aF3.7407272122399617
aF16.969572594993153
aF13.515998756008505
aF19.28978558263535
aF2.352458516207238
aF22.663087550245102
aF6.6552841992851395
aF50.433998843504334
aF78.00500318430284
aF41.129360783470524
aF22.311309706258918
aF37.15084221791899
aF5.3925483868734485
aF20.591554489263917
aF9.822956002845658
aF26.60921395843449
aF4.6262148431034396
aF6.457883931978985
aF10.592725233894932
aF33.356884435436406
aF19.83284473324524
aF23.754546287733856
aF14.076090936074811
aF54.67365129245007
aF27.539673253728857
aF6.68494287926134
aF11.654216746762323
aF34.81027651890445
aF27.820881905925575
aF5.042134089291577
aF25.03666294259018
aF9.43722914176216
aF23.707942827668717
aF27.622167978679148
aF30.323806154191587
aF47.787597870703365
aF17.633386803112117
aF23.11987144025406
aF39.6427151084475
aF13.377692246359624
aF18.507688367153133
aF14.755782191714871
aF35.28672246602075
aF42.80168856572911
aF76.83177189239643
aF4.37398966692969
aF14.211568553526275
aF13.971729026939565
aF41.06027455198959
aF24.83268087630656
aF5.996254643585756
aF23.00732669603893
aF36.93598047146531
aF11.47087653463922
aF26.164882183892953
aF19.1342702406194
aF3.614611529405921
aF5.167476803742651
aF14.38802874020045
aF5.41749165418455
aF8.463714187842161
aF5.397351348509864
aF14.891642095948567
aF16.693164491353617
aF25.71650795820295
aF18.88016455291518
aF22.631624416527753
aF63.73541042146818
aF29.990366160897533
aF65.41840928196193
aF13.936029982965486
aF1.6661964674182956
aF15.09401667199027
aF75.42083301712462
aF0.6701080320785551
aF22.92511186653555
aF5.14598486726631
aF19.299302730522854
aF18.760375986044554
aF51.138283018182555
aF12.067672435494613
aF9.966115428311005
aF22.62212565426653
aF24.657010274445977
aF6.895793760476327
aF21.770999185286502
aF16.146240520347657
aF3.3838015403678074
aF17.22525830084116
aF10.332571404092048
aF32.632285808571645
aF6.241450875166941
aF25.128943643598582
aF26.192172642777816
aF12.422301579019347
aF18.868257457021855
aF82.93192668118684
aF5.436521277318922
aF17.308056729675318
aF25.887354887880736
aF26.756571499635612
aF13.03705515047318
aF28.34113393974986
aF4.922762651565984
aF10.28263695608996
aF5.169312170377996
aF15.950932392788719
aF18.843707014111967
aF18.67949840554113
aF1.5811126827876072
aF9.101532592102918
aF12.50900179249146
aF8.213041434347076
aF24.29704371304608
aF5.257937945500796
aF33.63707472225314
aF65.1660162737767
aF17.470024191602715
aF14.77869837735933
aF26.26492459883369
aF29.360402141265894
aF4.205258249665848
aF41.89533222974926
aF67.46533051116717
aF8.641981931654561
aF57.35741986402923
aF3.6522416597655405
aF41.76723355605145
aF28.226684605330057
aF27.652945298668556
aF27.76053571971183
aF44.99715923316502
aF49.6485254625526
aF12.792921608680915
aF35.12555452019522
aF25.9041030761942
aF28.211643167073014
aF13.090838453831099
aF12.050547684389056
aF14.074710973808807
aF7.883311449810797
aF68.88333509203788
aF22.7379812913254
aF5.104833368564629
aF8.384081708069933
aF28.930436751867518
aF46.57313043955045
aF7.994713249991551
aF12.98702730494511
aF28.06519037594918
aF3.158551220663906
aF62.76430705522664
aF9.884458760253207
aF18.03220254596332
aF8.093148530568255
aF15.107112231235236
aF20.56341267493587
aF25.298621179882524
aF19.266057108773193
aF16.1912162481743
aF36.52393169725614
aF95.67431617694369
aF22.70321481635842
aF7.546433684968198
aF26.416958766552845
aF4.879587923360035
aF6.361441797931261
aF2.0363833528925674
aF37.10993470198678
aF21.078911671440366
aF7.016541892615131
aF13.688066251010477
aF33.43881268318927
aF10.688885064278457
aF24.02327136595177
aF6.95977168984051
aF4.730881597915074
aF15.083427282172408
aF37.436888225452314
aF20.342427579527545
aF8.937088449712391
aF22.223433648084615
aF31.394272726989684
aF5.217124666280867
aF9.276176960839505
aF26.19162753731742
aF22.976069455629233
aF17.491212090690087
aF42.698108331226436
aF63.977349012325824
aF11.924156467199357
aF73.5127875240838
aF21.555941687865737
aF39.38308822204233
aF32.91469941472898
aF28.42402188028396
aF38.235395523784526
aF17.085538897066243
aF7.226840921754553
aF31.67924830623334
aF12.393822629478473
aF5.009991931012852
aF33.482309491863056
aF31.59554804991248
aF15.540034989402429
aF51.46095188331007
aF11.456676102091537
aF9.338860471513009
aF10.97528259546241
aF42.38896010162357
aF26.11075175172673
aF14.30249286056143
aF29.248783599204156
aF3.9172597143399632
aF7.49097406456039
aF8.180122076895525
aF10.218944018118112
aF15.496301936746121
aF11.217459977907746
aF22.484199560140514
aF24.011361574293538
aF12.977133729144622
aF26.2296923508452
aF39.64384644489281
aF31.580487357842767
aF35.30039963457448
aF18.019096220422938
aF20.361214567638992
aF52.55555786301765
aF16.754873947189502
aF17.7487231497211
aF10.074578955483037
aF36.804314178046695
aF12.120603301876063
aF17.67533935290348
aF3.4981924923095344
aF13.84051830401671
aF33.29347595860816
aF2.949250763307947
aF73.77705567401414
aF25.582443637566612
aF19.634832360749243
aF0.4749211759666117
aF97.81673339969787
aF15.597352089403278
aF17.652873994426944
aF18.22838798704531
aF11.410244308945211
aF25.36996143323549
aF33.13603069751608
aF4.778564929178461
aF12.239572759948636
aF4.644217246478496
aF41.57818800470913
aF47.28775154205471
aF9.336288706940115
aF32.75508046025518
aF16.485589917945315
aF22.857629457222384
aF8.394899574375946
aF34.425969579036234
aF9.727957188038276
aF16.670479216711154
aF44.00381789298565
aF59.8387207143718
aF31.522333213484906
aF13.673190969673692
aF22.12800765217776
aF20.91227492777319
aF24.508095442455996
aF51.47970358092851
aF22.725701542955346
aF24.83463262033321
aF45.34152715218197
aF27.245891427056836
aF27.230980868698015
aF27.280708694822007
aF9.158762201663507
aF21.514088422512973
aF4.644689441945688
aF16.0635052862981
aF2.8611741626150287
aF2.234956933685687
aF23.33844271870602
aF8.19696584301547
aF12.767834651234425
aF22.01030604772687
aF34.10675480116053
aF10.939472835664207
aF69.955017458491
aF4.790093179725509
aF59.97866347094318
aF12.411315293290315
aF3.6002777628988305
aF16.206627126942497
aF67.25796949412614
aF23.427649836236135
aF18.728322496032884
aF3.4988598325171134
aF85.34246397611388
aF3.506213126302022
aF4.880794941889209
aF16.084477754677373
aF24.561107084990027
aF1.5170440061639405
aF29.49583241905166
aF15.462620614551533
aF21.68795288849635
aF1.2203862302428026
aF40.75497067592289
aF17.132751227232028
aF20.162101362737978
aF17.995525778472498
aF3.5594555140582886
aF1.032014819431009
aF47.24454310793838
aF9.867702052519737
aF18.326895480919088
aF0.7762328184433341
aF21.53599268129167
aF14.697202846167611
aF37.85393943392898
aF4.328227568638776
aF42.744624993471135
aF6.0383897569873515
aF23.21682607566654
aF8.15248338324569
aF1.9205997140310778
aF4.2195406404040465
aF44.283778814034065
aF46.87143082489475
aF16.104859157505548
aF16.870072807419703
aF12.307771229469205
aF76.79035812788817
aF17.63529718599345
aF5.117109077962942
aF6.622087270016888
aF2.3239481818091723
aF2.149742051804238
aF14.110016168437054
aF13.888483336554456
aF11.310458482423632
aF43.061764155969925
aF24.848095563775114
aF31.630120413549623
aF10.76747251688585
aF34.3255179475153
aF25.189869208677763
aF17.202357687323765
aF6.556640526304696
aF18.11151504891132
aF38.61912917931545
aF2.8667621224514455
aF21.679283882500975
aF68.12194721343504
aF15.955717580399595
aF6.8658166827545335
aF21.053360411510983
aF31.24559402274461
aF42.121443858579035
aF3.0599530547927887
aF58.78248922023937
aF21.818511950463655
aF13.481759848578891
aF9.373153264212906
aF21.974058261162263
aF27.33150373376298
aF36.96250523154557
aF1.1366065469340774
aF7.2110150960470945
aF27.975119923197177
aF8.54840934745065
aF69.3088977740302
aF66.43702966769358
aF30.42017069756792
aF10.28025477123547
aF5.972021021935599
aF23.51770875280796
aF40.20249030709898
aF73.92068680460659
aF38.7142218736281
aF22.844220980100175
aF20.03378090656624
aF2.316251917014767
aF13.32596078051202
aF39.98548343781118
aF67.22760167176948
aF12.960533289168799
aF25.678625647778752
aF34.71458701462853
aF3.527512442443308
aF43.50651193808342
aF13.665236616878921
aF9.586081157174059
aF5.8753138795067095
aF5.505550519736238
aF10.574512891771555
aF47.649767330681556
aF16.01897276683869
aF9.090948588845174
aF44.00220771572395
aF18.742503343523957
aF33.34902647237699
aF24.566316267154694
aF47.678920026965756
aF8.221751057128598
aF11.765096972130545
aF11.000477669599794
aF5.594252327289102
aF60.28117485951403
aF5.024243167435501
aF9.174827227295381
aF4.228568873649678
aF2.623109934648408
aF25.697247385357418
aF14.349832367257076
aF22.732093599529225
aF2.850822968553534
aF20.920692985459755
aF24.142782254408814
aF4.398423149192266
aF20.711426505098338
aF49.8876574004064
aF22.96530643917541
aF5.120685095594156
aF21.354017373033397
aF28.863525443850953
aF6.084653301061144
aF11.556378013273699
aF28.70362607534446
aF10.508249748099528
aF19.81514349319937
aF5.639225505661219
aF20.945261923757187
aF42.37760681634685
aF4.705523814466622
aF56.368382144449726
aF2.8871260945789783
aF7.598628820689988
aF30.68296916831245
aF75.53498176273806
aF24.816525199710288
aF19.556549492343546
aF67.54319779117256
aF31.40019656386999
aF47.991121794325046
aF2.430184487622331
aF21.969760603857257
aF21.39016595340459
aF27.120303587254394
aF2.088084254830376
aF38.85856013347172
aF9.030228264164505
aF5.3132439571814585
aF14.485918484125207
aF46.82830592785456
aF15.3704897470236
aF3.7072224551462187
aF9.055079908010748
aF10.163913358244056
aF35.45807504861356
aF67.3599033019413
aF8.900558689955577
aF7.1818421181163465
aF17.664914317666934
aF5.897947948362977
aF63.5779065202264
aF12.577386905032773
aF9.291880525578383
aF54.813831282573155
aF12.98246355137365
aF26.302367614625254
aF11.592269494705365
aF41.38058213365711
aF34.34087539059468
aF4.482574715025948
aF24.737274557068563
aF21.513906731289996
aF21.155359947916573
aF5.383667415645332
aF4.18217615636824
aF17.31861714496405
aF1.514319977762708
aF13.32562678458454
aF40.78427332572094
aF34.1514267631018
aF26.593614545473102
aF10.645493282401484
aF13.105174910976208
aF7.743548601033987
aF19.416008170113013
aF28.68277729929415
aF33.851839371717645
aF15.160035187955579
aF12.51387051582951
aF54.537180786873364
aF5.0293785381629235
aF28.167223480717805
aF35.61389035469649
aF16.99601446105292
aF81.45361702585998
aF15.244776162142971
aF74.78528142107886
aF17.35718923151342
aF7.3424242391455925
aF17.150892733689826
aF41.50911543195891
aF15.688896117926594
aF3.493755472720643
aF86.13250063499098
aF20.4081785377646
aF7.147058461122694
aF7.010711018526453
aF31.94226758662425
aF12.445997606294862
aF55.283159401317
aF9.865650719077639
aF25.893684184055108
aF82.74622720332532
aF13.043429848424482
aF32.48018097152617
aF28.257050639301955
aF37.72535548056477
aF28.724684656621974
aF18.249339104770044
aF15.128789381603672
aF16.81292999113201
aF23.69434795236684
aF18.580548914119415
aF2.3865046324069494
aF6.662466282902106
aF11.854731434685995
aF24.213753246108997
aF9.810559151659794
aF8.119414552985182
aF48.68644826717518
aF22.188861392173738
aF6.998507043683066
aF40.579267953666076
aF28.373957223018536
aF12.497830791722457
aF10.89897917670381
aF3.7085596182610074
aF8.37519189710312
aF8.449067040274976
aF41.67520789806603
aF26.717459971685855
aF6.7374841433032255
aF2.916220721154069
aF4.025169592320205
aF29.596284192724255
aF29.325758178313297
aF52.66897320690451
aF8.601984028975574
aF16.236806055947653
aF3.190881938663943
aF35.086527637079584
aF31.457518657654045
aF12.966573253291397
aF16.09130893966419
aF5.726563510701702
aF11.418905114240665
aF5.967916667622951
aF3.776475824981284
aF6.390280960862412
aF27.97213686229786
aF16.138954876025196
aF33.04576893519948
aF20.074986063491444
aF6.25263405919316
aF38.17628448822976
aF3.4936964364981153
aF24.143829665645004
aF2.2909436599587725
aF24.496792183288115
aF57.797892658314474
aF32.40820850376525
aF34.42442970442791
aF5.1138292606634055
aF27.26860010234669
aF1.8238665161613012
aF20.060187899962834
aF23.510889125423102
aF74.00932136507616
aF17.215074179667447
aF6.8113361004609105
aF30.09502194688402
aF11.257739418141346
aF37.41161430308809
aF13.476063538131822
aF25.82058808953461
aF37.030734916458194
aF36.88449218759252
aF10.35225130608213
aF25.421642084368955
aF0.13593946140437604
aF1.0971225270988643
aF29.879801431594927
aF33.39275605602712
aF3.007635539155476
aF24.309313130125645
aF22.179019153818427
aF6.689966682345515
aF5.949897513843024
aF26.915014974619485
aF93.82059725850996
aF11.013541214065874
aF15.612613238629503
aF24.397144085524847
aF2.1464700388060787
aF21.36629415099529
aF14.431416444366935
aF25.62413134256901
aF15.684884599405128
aF11.562662677119814
aF22.22663885719958
aF20.09187236917258
aF25.703799487467805
aF2.670224656791932
aF20.921215234688447
aF4.0865077162911865
aF44.227309794219245
aF26.787636649575525
aF12.936409101891993
aF59.88001009438933
aF53.10426314149797
aF30.64550621524683
aF6.51263196541035
aF23.096099833323503
aF25.527062659045573
aF13.717761564756326
aF31.95182862280153
aF14.444532366104598
aF26.516964850479614
aF5.49868250801203
aF82.27180789182609
aF6.682782489743782
aF1.1726348693792454
aF60.2936425930887
aF42.54331489645481
aF35.346129381638484
aF7.32392440303995
aF15.78405832930211
aF35.972580407476684
aF23.42373015219411
aF39.05875783855589
aF30.759186807716556
aF21.292440914908553
aF43.44711195195075
aF8.474879904940567
aF12.376143372298554
aF36.809383367291844
aF6.772804920552749
aF24.582133148756807
aF41.90945314273569
aF10.597016002455083
aF33.33435697150511
aF32.564051343565005
aF22.30207782969479
aF3.796558788617624
aF15.455377877270694
aF8.90373064286153
aF33.133485758262296
aF30.974982907373846
aF32.69438639072891
aF9.537490899747654
aF0.06622788553779256
aF20.122965996641167
aF4.111864526926813
aF10.072382875487056
aF23.167656326463145
aF11.832433906450916
aF44.91528240607297
aF39.23515958250869
aF23.684897836025762
aF3.1267540522527972
aF8.589538907677424
aF5.918024425660949
aF2.6539919301978316
aF85.7617904278154
aF27.775251975329628
aF27.11118592173384
aF30.80046970324087
aF3.856955377949439
aF26.886855063094885
aF3.4274517839507364
aF11.572531764218837
aF6.542519985789569
aF21.418749922953175
aF16.987350610000693
aF27.692369338205
aF69.9729756020985
aF55.05556123936764
aF29.139996102129576
aF22.434380609954093
aF20.908752356033553
aF28.727193122744147
aF28.744898057143967
aF36.49309923148732
aF21.716874082716025
aF3.272844638388066
aF11.400957499661505
aF28.22649736063167
aF13.187286512659774
aF10.995810077296257
aF18.9494126869963
aF2.7768683063625677
aF11.530286081953633
aF15.012228942882503
aF14.085926975330624
aF9.381055467918367
aF12.30863092035957
aF35.916066122456265
aF21.553755085644973
aF7.494434437496517
aF5.722644967343394
aF37.92139858536164
aF1.8230963039283425
aF66.08705062045593
aF5.968087075856795
aF9.475841129138514
aF54.76038044573842
aF13.69317894114845
aF11.654265936152557
aF26.720936010448106
aF5.491019612594451
aF37.14673329104118
aF68.59120626309091
aF16.617842699399752
aF25.967812948333812
aF35.296875071297066
aF36.00812219676581
aF6.629081912871886
aF31.804580049863937
aF19.91172271822368
aF16.66210560096027
aF21.626772232057377
aF11.193769934660393
aF48.78669530959175
aF18.551726128118933
aF31.02601878796889
aF65.14881186880994
aF8.469114602547865
aF14.68814835102982
aF17.086798836539643
aF63.89708307195585
aF15.18437273331687
aF14.875123772007404
aF46.421625176197836
aF24.0337120214679
aF9.521932712284242
aF16.201392690093304
aF5.046846456104457
aF8.267829650323186
aF24.76746776653363
aF20.098492791651005
aF77.62005257348785
aF22.313355000709574
aF2.2334615449567763
aF17.89289336126696
aF9.154503888408103
aF6.429946903991442
aF19.525839740826235
aF16.238780416192377
aF22.93143731386986
aF4.201006875000635
aF27.068323985606277
aF17.201347209809924
aF14.603594303547611
aF10.613032725586988
aF49.56904435864163
aF9.92352668469795
aF19.084041056517613
aF42.19013559307575
aF19.00937044493973
aF16.95523826621097
aF2.4769809916888
aF20.72496158160241
aF2.613306255015375
aF21.60317024878428
aF13.299765030364899
aF7.181047188469766
aF16.475149943129576
aF12.45223373318251
aF11.673183158687737
aF32.36739980243176
aF15.983026306695717
aF6.617534181284182
aF35.17862230032101
aF15.744534445628027
aF7.667936649540922
aF7.361034901135778
aF7.852502183184074
aF40.32243374083889
aF10.437094786151162
aF13.973170409527807
aF31.738568825691896
aF40.33534198509615
aF9.189260588633244
aF14.178424805038802
aF54.21295304659996
aF9.9694031890135
aF20.787374867300304
aF19.18565924493646
aF13.769517611607
aF1.3166940933275098
aF4.235486857242908
aF22.25810562252803
aF31.805806426972538
aF46.23179142426357
aF27.360139579145176
aF7.537325255928625
aF25.263633029042015
aF11.276874147309542
aF14.957506449664843
aF16.02684599964733
aF15.99275592120568
aF12.133279920106487
aF31.386100129973528
aF41.44342095621477
aF21.435271072334068
aF13.77813034435151
aF15.72988638683605
aF10.22135653722207
aF25.965993800708286
aF0.7642049312901806
aF14.486411919318096
aF25.540899563307576
aF16.032671538016572
aF5.293932153210914
aF37.39381347076139
aF28.417234886167726
aF19.832948979707258
aF15.259180146031715
aF11.634286425498377
aF13.256774769925439
aF59.085704393565756
aF49.28178967334952
aF33.26416206409474
aF10.118591967005996
aF8.103206678566501
aF20.207233563661298
aF24.33040289754596
aF16.64395338615262
aF56.51740480921388
aF44.22739492083131
aF28.909805733968874
aF27.26279646839799
aF29.205408958005115
aF15.498124266048544
aF12.081202461556515
aF44.930279580201386
aF20.26261569505933
aF5.3792490604629934
aF51.23692098570165
aF80.03031809945878
aF14.798250767825179
aF16.45472373801679
aF8.607136646119962
aF25.830046008824866
aF20.11746745185489
aF6.529864767914016
aF36.771048499150744
aF16.916964880833504
aF47.8458449188575
aF14.838063155218288
aF46.74088652934348
aF39.053018703390634
aF17.043268851770502
aF25.72030967761399
aF42.86640471725905
aF57.729654919806464
aF5.789809720659592
aF10.443183859965135
aF21.371275318079107
aF13.431460632400883
aF3.334537050732789
aF9.02544458408261
aF35.301867680412556
aF11.893940943100882
aF38.320852799126015
aF49.975882475771876
aF3.347788911800897
aF21.92337328696103
aF15.23422761652753
aF5.483190814907227
aF49.416006577758715
aF0.7497437599201656
aF30.777796454084445
aF2.3867983996853823
aF12.2072879444136
aF30.597885608638254
aF7.159053123108363
aF1.6943547253113278
aF10.677638619405126
aF16.23979467626264
aF36.95360534337734
aF5.076592897636757
aF23.612617745158044
aF18.461684353784296
aF27.171563265339977
aF6.652485972673372
aF5.1435516609125935
aF44.14808193983611
aF57.525763446892334
aF28.07172075174347
aF32.72707669908868
aF13.888492821464839
aF11.287702128358179
aF3.1560505199455737
aF32.57119047789216
aF37.51941756621568
aF15.96988595941325
aF60.43123918947663
aF10.402096065131527
aF31.552187734928896
aF11.307947119994068
aF25.734551422973855
aF45.44249112192076
aF36.30396645799435
aF5.487576073659272
aF14.584964719632229
aF14.511481293765316
aF13.692365320542402
aF14.696985064636952
aF10.120624573119468
aF2.2591159474134384
aF74.05778866346286
aF5.396699018126411
aF34.67675272235828
aF63.48100098950693
aF21.15363406217109
aF56.35090883356038
aF67.01388829641573
aF11.34826477801093
aF19.47745033090404
aF13.588406391629764
aF11.678625002058531
aF48.018302770116065
aF77.59926244460038
aF13.46474197980878
aF31.79209702622791
aF19.099824489969464
aF9.443608479518186
aF24.25268850535907
aF3.1350049357487344
aF2.6129167420533275
aF8.562940163058053
aF2.0287392671816105
aF9.513594579261675
aF69.5466680244795
aF44.79365150859778
aF39.08243005802516
aF3.3855574158187065
aF15.411590868880909
aF32.47532784690253
aF12.918118700543136
aF20.764407702135905
aF3.4916618469475162
aF9.319264595783396
aF32.40132647765567
aF3.986451473449773
aF15.316810591277045
aF15.339482646390135
aF17.534245805362893
aF43.34695937138238
aF13.832328152769863
aF4.522826618928833
aF6.98702718403525
aF4.499990999805559
aF61.059489269789324
aF27.600185326879032
aF35.290631228329424
aF15.569252568594663
aF24.751723221649403
aF75.89518477553658
aF7.368652754834119
aF12.387419876016624
aF52.683854469616854
aF27.023228046110237
aF39.915180536211906
aF58.36100484498488
aF21.049588819041357
aF20.434925532495047
aF45.90086664025689
aF21.23875997418594
aF18.46494110675352
aF26.506024675173542
aF35.55376095828625
aF3.819034364031294
aF9.994571744050186
aF50.461906431636905
aF50.44645401195641
aF31.050790603602042
aF4.077414338253725
aF3.2080211095926945
aF30.16090802474574
aF15.67050148023353
aF36.38632714423607
aF20.770119033881965
aF6.409929818380576
aF8.64185008023354
aF24.305287448883313
aF2.61792311606455
aF4.4023920934150675
aF50.94791406279086
aF22.24458080717174
aF15.027703341317567
aF10.035893156102828
aF11.220677410341526
aF62.656757136934374
aF20.400305506778224
aF10.743322021659107
aF14.493487989858677
aF16.98928443110162
aF11.178083037995046
aF15.293825310400218
aF26.519900933785376
aF7.415044598556071
aF21.382510205457802
aF71.76319488442161
aF21.41146546346906
aF5.553638237922571
aF71.75915489537199
aF1.6940144838234434
aF8.904891040882521
aF12.661601364290481
aF37.15228675688707
aF4.379682945722845
aF11.460377290958048
aF4.257824947174528
aF7.8469743673846954
aF20.781937096501657
aF22.51167552006028
aF22.529064335854454
aF8.929842349603424
aF23.149323209003654
aF40.692031940960845
aF8.863387664349725
aF8.50293180162833
aF42.23760304053488
aF12.255691024999809
aF9.094293850731166
aF25.468606084160303
aF15.614983445022046
aF5.36414394381781
aF7.340678122379325
aF27.86602569312877
aF27.694348002948132
aF11.107868463389945
aF36.472157284171914
aF13.697668783234425
aF12.417758257180202
aF6.623983280838662
aF18.343319633547384
aF15.795746407925304
aF60.79592756218357
aF55.4606356645113
aF35.69730626399126
aF5.307044832489581
aF28.18554790902305
aF12.969171980293591
aF64.01508982868978
aF7.685086791365323
aF20.263654915402977
aF83.99242635258264
aF33.006072114668754
aF12.991564229893083
aF10.215623026242874
aF22.02207208277582
aF48.400168780298635
aF22.371519401739537
aF6.571381635911695
aF29.71579488694796
aF11.825309755890832
aF3.1100275267842137
aF5.963183988476816
aF55.67600028218682
aF25.75276888755817
aF78.52116156922327
aF25.335025594004982
aF17.089193828449304
aF6.410208892000684
aF9.045346626549774
aF9.390181314894804
aF2.1819537535890543
aF20.789045281311793
aF49.4617868613424
aF3.3959263352974887
aF40.52989121807375
aF18.03680715973322
aF3.5176492263923587
aF21.32017257615603
aF31.62164082683759
aF52.27473428513283
aF29.933674062640364
aF80.57423032919894
aF30.17242805593387
aF73.57917484175401
aF19.663235085710298
aF35.288869501659406
aF10.219799406401828
aF24.926225368475215
aF22.72340565107119
aF24.794786138128348
aF3.315204071773606
aF7.842788546856557
aF39.11785871268112
aF3.111302075729483
aF6.936020158092363
aF20.4974042823158
aF38.71510683176357
aF8.95685046307304
aF24.31139628138408
aF49.50834355056587
aF31.22890325223344
aF5.9273200874769545
aF55.855942719057026
aF27.729463605482632
aF13.863028467083746
aF2.29048624803249
aF19.137277234224733
aF24.321920193992508
aF48.411821376036215
aF11.025094110977006
aF30.57201796572342
aF15.774769712330574
aF8.14991043949194
aF8.931450558597973
aF0.9801879544774018
aF22.93187384578629
aF35.23253581662446
aF8.51540873395181
aF27.657110634376473
aF8.322155056343703
aF19.17990235884881
aF30.64182067523583
aF3.5946725622328475
aF3.885840714879051
aF22.15827761889002
aF23.143841349731744
aF2.865377742150986
aF1.8276479178985892
aF34.3724636476567
aF7.168853506577111
aF17.86244534039217
aF8.13531937675782
aF11.86098745937839
aF23.829439706590232
aF26.58487650866955
aF56.02863547018017
aF18.367545184212993
aF36.696223973312016
aF27.869562964945462
aF19.260092093998985
aF11.245265681612793
aF18.92851515035635
aF14.909331719855926
aF16.89953016555548
aF44.65344541866184
aF7.413558214291889
aF11.059494358021814
aF13.835290942070335
aF33.701056974734925
aF44.33582451235215
aF22.726699404054834
aF2.9765221396779293
aF29.103517507457454
aF3.555766956912553
aF10.590302516710336
aF19.135381425123313
aF4.311142072581378
aF9.968099056092395
aF17.0541345370052
aF30.290357824775256
aF7.196533617857187
aF27.615496936375575
aF16.97084200754192
aF26.120819731746433
aF13.344453655847751
aF15.413211820963326
aF15.925352822916201
aF22.35597492096605
aF22.506000251230383
aF3.909217242383187
aF5.106860162028647
aF3.714000185417029
aF7.164813963171399
aF15.281416803342568
aF10.92503107670401
aF54.56795551397595
aF43.182293049476705
aF8.190798519139648
aF23.521678640932187
aF32.13584381742767
aF12.70747060403335
aF29.79193918283028
aF18.87015812929878
aF16.98949790624534
aF3.702480273381203
aF36.119183950291124
aF53.86218993142506
aF25.674136012232356
aF43.59158132596955
aF3.8632540312341725
aF25.387279474873015
aF11.352471990960643
aF31.023545304048085
aF6.565065090681969
aF33.9202747556306
aF29.3738258917036
aF0.9034231607398809
aF75.57996411528764
aF22.05818386204256
aF1.9080836004294275
aF48.97360717776719
aF30.534339349230308
aF16.233373997588245
aF2.419335165472724
aF33.76395064114413
aF15.276231369512942
aF10.060535188792654
aF10.811114952722956
aF10.43178017346655
aF11.831660169081287
aF37.91841594322047
aF40.900854285527274
aF14.00348648931728
aF26.42274213883717
aF11.692182978631259
aF16.72663051532287
aF6.724836492069365
aF38.8992790596765
aF7.4610922031859195
aF4.318972511252892
aF14.952607768506258
aF35.020125650202544
aF3.839109964495443
aF3.19137477395493
aF3.855399852122306
aF34.304230688326925
aF14.24887179756572
aF4.244324069362696
aF14.139003429822113
aF38.5314021450668
aF16.03478451840567
aF33.71238421020567
aF2.941148454356959
aF22.328809752738945
aF22.8740728585744
aF8.689770394117174
aF30.867717125813233
aF6.355131678625543
aF18.931570028022918
aF7.014005413902796
aF10.90998577318615
aF20.17286853508138
aF20.923936086146455
aF18.619726114072396
aF29.613526940467388
aF28.310692527321315
aF4.901701197810355
aF10.821488090287623
aF31.66529698520882
aF8.416666498545306
aF17.445671274550605
aF48.93106401175679
aF30.006321757136398
aF16.565057951603166
aF58.50388517023013
aF1.0869907495412778
aF6.395117641747918
aF36.473612722340725
aF21.93894067371215
aF23.707383490847008
aF19.449864616749842
aF38.099993497500584
aF11.05941123734944
aF68.65273320914326
aF5.778547771276582
aF13.242550087211907
aF14.818364293083091
aF67.44499497993249
aF64.2437100043679
aF21.71708453426704
aF1.6966436845906088
aF26.035458460722527
aF45.7290846711389
aF7.682021438541127
aF19.54453525633994
aF1.5334880811285385
aF7.175526703357792
aF37.08420005593472
aF26.993360833179224
aF6.017348547640707
aF23.663181103967066
aF11.634724704824514
aF15.37063115975537
aF22.1369844979045
aF17.56981030929855
aF6.871928309529825
aF4.913652974623364
aF14.26329492514534
aF35.34160357247525
aF13.24762528579057
aF22.042728050696837
aF6.306871482924735
aF3.124174244097878
aF3.6654067128808956
aF10.672552987249139
aF39.277558545818906
aF18.63583451392064
aF43.34152105610038
aF25.15732913213293
aF5.906912418611793
aF42.5710098629259
aF11.107486955420896
aF26.162269120133537
aF30.737034232054246
aF12.81957093138608
aF3.660329323318244
aF14.917383326078022
aF12.18379536867431
aF33.09227890684629
aF44.66320389886089
aF5.81815686560831
aF34.06691514313789
aF10.087882276870575
aF6.309433252010218
aF1.5749732815851827
aF17.981675771124632
aF26.787507639371164
aF20.378765411973948
aF29.218837537751114
aF13.348733173948025
aF21.06321801899539
aF25.585910225740253
aF29.68587058312853
aF11.644240749236875
aF42.811889151321346
aF11.428098204090196
aF55.30409345829631
aF19.644666520350473
aF8.857667393202677
aF22.376950991234004
aF7.496911742183384
aF11.645036048644936
aF34.79204829678497
aF10.215326945707984
aF12.185846169023248
aF28.091318789732306
aF1.8484580032552316
aF13.824788046145734
aF16.062578809451672
aF8.814765859782524
aF19.703308356768673
aF11.430969030444837
aF7.950000665211855
aF18.395276272242885
aF6.271108488468231
aF29.71054363566854
aF30.870262730019643
aF8.270003136241893
aF30.706641400572746
aF47.265133504551194
aF5.687553492678604
aF3.760745429463706
aF5.542712018593373
aF56.24420684920834
aF20.25687912478152
aF21.518896902777144
aF10.154079116236382
aF50.08465616410476
aF7.944252122013291
aF21.751954721825847
aF10.342849408562751
aF31.09176219464754
aF75.52473047859694
aF6.580222430388771
aF75.89407719488057
aF22.141708129399536
aF2.5093915288465864
aF10.700451415329855
aF9.131417535043997
aF12.872776789151077
aF78.59988360631338
aF24.461701745151018
aF8.007730448848472
aF23.81209077017055
aF6.398533712177131
aF59.525801848688275
aF2.117163795835845
aF4.813097617051523
aF9.039434186561014
aF6.742957802392533
aF4.026100978369038
aF60.14309849128375
aF9.04781700900324
aF9.34571595028862
aF31.31250681253701
aF3.847244799796424
aF40.22944860040947
aF23.56894506929889
aF30.49940695928768
aF20.782553877049065
aF14.28551664477072
aF2.9878396705611396
aF22.130032030096398
aF35.386751931911235
aF11.281350525794593
aF43.218605249654246
aF27.482154988786995
aF28.848932565448894
aF8.703144928033032
aF3.178220934453847
aF32.02011488431486
aF21.89913416326597
aF19.75081766655216
aF36.994208371894246
aF4.344423367529817
aF7.674933987083864
aF33.34370555406795
aF29.860031903974143
aF19.7207182595864
aF8.12446187637036
aF28.270510151594323
aF42.180606426585
aF22.640390947021356
aF46.49085656131536
aF46.30425633978855
aF5.040401025024236
aF9.026080698706757
aF16.452135215461816
aF34.61657925616457
aF22.278557329503734
aF26.362391514024146
aF40.533077828444
aF25.641452727206435
aF2.684650321617896
aF19.516759542700594
aF3.2138005764933166
aF2.7703124271605306
aF73.12513191190034
aF15.064001337060215
aF26.04281848311735
aF11.06232815566748
aF51.227002414721554
aF15.43117964050513
aF68.5171041197746
aF29.412150251722395
aF28.233162846380644
aF11.785843211662376
aF7.719162764497508
aF31.997591243791963
aF8.261108505217235
aF1.5840936909026566
aF56.66210096721121
aF5.104812277602618
aF33.651518050611706
aF28.666227528244324
aF3.769535584047702
aF13.536427628985045
aF22.23209792216896
aF10.895845565201933
aF47.46353665940275
aF86.36643874242075
aF19.301595405839915
aF4.575516598797875
aF8.929025861904012
aF10.26985990012079
aF10.845252754513993
aF30.444932006193365
aF7.134692644745382
aF3.368487982636741
aF2.9110587368147383
aF20.390347648411872
aF2.9206579866593168
aF14.363552186741478
aF32.547666824928285
aF43.30909643136246
aF11.674558690347125
aF10.056530895791804
aF3.6207168913583287
aF36.82976796666282
aF20.241680497176507
aF63.789863547758124
aF42.35367430700337
aF37.730876186517015
aF4.467434779268852
aF17.499934403504547
aF11.28611259119618
aF1.656171780026845
aF21.68252487557585
aF34.14534032010438
aF20.560983117567712
aF20.430042457890615
aF31.656125456186317
aF20.019395881643366
aF59.891911196597576
aF27.14910612510119
aF23.49602165797429
aF26.462145095216584
aF6.419812046477522
aF75.16308941165576
aF13.449395391790144
aF14.505529171888535
aF29.51604897148623
aF15.96493741441386
aF39.799844053268025
aF20.560868286543368
aF63.44956946445321
aF35.198653052293345
aF5.807452235548733
aF21.683375065034113
aF29.910275029854972
aF7.130802861868473
aF35.49743233525155
aF9.349036916381028
aF27.42397430641837
aF6.436804168836395
aF28.956459536289874
aF32.21245066963636
aF19.33590894101886
aF2.0344571206017603
aF36.44167585530081
aF4.215703976646905
aF46.261376294839934
aF38.63680002612465
aF15.405976961036158
aF46.63710662516027
aF8.582815083773268
aF10.031231430641105
aF26.154601186655245
aF15.071104185279069
aF13.818874742460045
aF68.7109371360793
aF4.178178413819759
aF9.703776144114464
aF14.034437414991137
aF2.657475982109728
aF4.486770522363321
aF22.952760449433487
aF33.221072681353654
aF13.043798145043914
aF24.799969950294784
aF5.305783183944672
aF65.94597812763806
aF16.888516096622453
aF47.6942787143663
aF14.7627363137424
aF26.935789711542263
aF14.64117275713994
aF20.34955928687335
aF2.4873362047785452
aF13.816758503052167
aF11.95160306793254
aF3.3611363964029217
aF17.53775785967292
aF8.992523410399459
aF12.016238545940348
aF34.54754893992884
aF11.682038348442493
aF13.035435522246658
aF9.639232940348833
aF42.11302150123016
aF36.71572831061807
aF13.739115323444555
aF4.403820682692593
aF42.46725232738752
aF9.848952598562818
aF2.187020787195488
aF38.066667432232286
aF10.174464038906711
aF20.488200903915452
aF28.468237446195186
aF23.47417171128812
aF14.832667280474023
aF33.43750988437448
aF85.272933606923
aF11.562407088520464
aF31.82663266141117
aF7.518127711826036
aF5.333724030261071
aF21.77391223376221
aF32.65902741110061
aF18.112391808152314
aF6.100078109856342
aF8.397041585815444
aF13.370423934460003
aF27.52192522171516
aF32.00397951949826
aF34.154574493844066
aF14.20253758531201
aF12.476287851759892
aF19.270013705230298
aF4.356525834907
aF17.95341140958645
aF13.974112036211196
aF28.669965606707464
aF9.569905891004995
aF24.0026690564198
aF10.04242503946868
aF2.230736486830461
aF28.92943275525262
aF25.78331800614608
aF13.033639887502705
aF21.54306671361134
aF26.587251480934665
aF7.216197327291373
aF9.87913615801027
aF37.10358780042478
aF15.722726275531409
aF18.33947704953735
aF18.280292533809316
aF12.771958759751827
aF29.33227763929935
aF36.70585914409809
aF39.435762184576426
aF22.091394591964374
aF10.937157119627221
aF52.443592022103715
aF2.3915670060314937
aF20.82776605335932
aF59.375781279812344
aF19.950776047086475
aF47.69613509494977
aF66.41973696478898
aF12.957626697601942
aF82.57441827696398
aF3.108978612405209
aF4.724700529074746
aF53.63778879613307
aF50.2178507963809
aF40.92088302535578
aF7.103535952203389
aF88.98579983209825
aF19.97307357070748
aF45.837503059778214
aF12.466555617993993
aF13.260204840239378
aF38.98538872723492
aF4.138081909482601
aF20.209485541981017
aF44.66631341486447
aF7.333183862650717
aF4.145085132117966
aF2.0758109069543416
aF39.888562749261325
aF21.093518165833675
aF41.66976201107787
aF35.386128833892535
aF10.002625202616931
aF3.077222978467433
aF3.4054297778807863
aF33.653620599553584
aF17.46145201798343
aF2.5014252418200527
aF50.52430201719808
aF6.39349731426639
aF0.16914678262442503
aF21.847027054535044
aF39.6749499183349
aF5.177070417424429
aF54.08990360231162
aF25.285502063298274
aF10.266402382818715
aF2.72276277345447
aF20.294775642384778
aF30.46026222194598
aF13.928183216464372
aF23.53638840432805
aF19.934838183640707
aF27.540849815325096
aF12.150812281801366
aF42.82727266091585
aF12.359033144760293
aF8.009580669954367
aF24.47842995134371
aF0.21757990100216285
aF7.42882758825647
aF25.992514882715838
aF53.75601073853133
aF38.67592657649089
aF4.8652712379107275
aF9.91957256413722
aF10.797422311220465
aF12.122612448104306
aF10.61919002574737
aF39.21548756746669
aF11.432591981519364
aF9.171659820962923
aF30.906063770865966
aF48.15654805179405
aF65.67769961242952
aF15.265250170977145
aF6.430931137987067
aF36.273030145818595
aF3.955125983280535
aF34.07682715949839
aF55.06168318603847
aF35.29671797255314
aF6.677850131135768
aF2.9795398745984256
aF12.227489332244415
aF4.719225377326141
aF11.407620144704008
aF56.55917144762936
aF6.674537451995397
aF18.01945225214798
aF11.649190648721552
aF17.42825690915935
aF2.6279525784295648
aF48.59002833470184
aF1.4037777822278847
aF8.339874302725502
aF4.823755804281295
aF2.588099305585313
aF7.108044625203
aF40.29589438941117
aF2.3687994939933006
aF50.77296779097759
aF45.1372916379969
aF21.904569146946773
aF1.570109555235921
aF33.51838243348264
aF9.221592277149211
aF10.791098407996442
aF55.20054635290349
aF42.731861256143354
aF25.04065467273911
aF13.675699050080741
aF7.296637709553601
aF89.21347923150613
aF23.387554128817527
aF9.205591204543998
aF69.85321574467078
aF22.09580314917591
aF23.964587099267604
aF25.639199487082124
aF28.493467069704575
aF17.336744549093723
aF36.32464452721669
aF49.15485410920305
aF22.593546833482566
aF47.96898223269851
aF16.459893607863695
aF8.698337108919498
aF52.46463741615683
aF20.260690217518246
aF16.0822622773254
aF18.99813644017645
aF8.657934178637248
aF42.04452793837964
aF19.39704896970544
aF26.553577283068044
aF26.289313118669703
aF2.5636799330404574
aF34.993192268627695
aF69.57770571100798
aF20.88657618981244
aF5.745911694906293
aF5.950378386501019
aF11.983219705071198
aF19.243164709395632
aF9.603677021466881
aF14.307430171879567
aF9.334816319669901
aF15.303453829738316
aF104.08030349829679
aF0.7876267635913304
aF18.332694292890835
aF14.650339719125244
aF10.704361450056371
aF50.364553533223386
aF15.403342151291277
aF5.738368814888463
aF11.851581895093107
aF53.170200131867865
aF5.804075580075635
aF16.87744931604825
aF33.322353762078286
aF28.642187068821595
aF12.247132164638307
aF18.386721251562967
aF29.526769444262936
aF29.974393154506352
aF46.962781942062115
aF27.522793893992084
aF20.785907342548246
aF6.748283503706371
aF46.09673460938537
aF13.160363005804987
aF12.70160788246758
aF12.89929744938966
aF1.6240026655379354
aF27.631552206603637
aF7.444161369855685
aF52.51053074658886
aF24.415661959058806
aF36.41105354529002
aF2.5960014258186432
aF30.16162981890031
aF60.663802848236706
aF47.45231400617339
aF38.177940300887144
aF54.58848394273181
aF2.4677799988449554
aF11.110769313811963
aF31.80262944173155
aF3.2919891663063714
aF11.781215482657974
aF2.0282320405509524
aF25.339225427096725
aF9.67445141730561
aF19.46801094141255
aF12.51432481199558
aF1.2224264446637898
aF11.441956937524795
aF39.72712879016847
aF7.825532518291688
aF18.587131987554724
aF8.976599621410863
aF37.17137729962515
aF30.110999124741596
aF24.60546770929574
aF15.622075717847395
aF35.652525454528195
aF19.195748859885185
aF27.89213787118034
aF12.514694731820363
aF16.67397289974166
aF3.001378486332369
aF6.5785887985523015
aF24.853132325163404
aF20.036444112742437
aF44.76443173667494
aF23.585944608994364
aF33.206638870526945
aF61.15748515780348
aF16.8942040370388
aF35.52863151427185
aF7.011304745305617
aF22.019163843546
aF5.391107627130339
aF27.396714702772393
aF7.565061861253373
aF73.66749437609964
aF9.607874750894249
aF32.956269730000045
aF12.420435254794523
aF9.32715931378764
aF2.2941382023513204
aF48.182510724944244
aF5.8994157873061095
aF15.447760569870741
aF50.054749316817684
aF14.120508196131956
aF4.399766221554982
aF7.010461411823095
aF5.251264907144267
aF39.40642953153779
aF13.302465756374502
aF57.31462319427028
aF20.014013465323096
aF5.649469808768557
aF4.960999539214071
aF25.175020514756955
aF18.980382284923607
aF25.88840882914267
aF28.9197237469139
aF14.029914056131778
aF23.164273051543752
aF23.914790705698184
aF69.34354740106147
aF14.584165835549296
aF3.578739528205716
aF23.449405888803398
aF11.542335262884173
aF18.291132202700503
aF43.18516542051712
aF33.94874291644344
aF16.609021629684655
aF7.371651884502173
aF13.446787855016865
aF11.15177560229283
aF2.0920038864055375
aF27.36634036119151
aF5.119543362447942
aF17.611292881643895
aF16.891628240234926
aF37.299438835773614
aF2.482229666016872
aF15.403547517211386
aF7.081523233838248
aF13.700429252271551
aF25.512999347540017
aF39.82323737771755
aF53.76726338351827
aF46.41794235159208
aF9.39932219441983
aF26.960768370185043
aF24.68101500844812
aF0.9799223260923361
aF32.168586843908
aF20.440294173185396
aF26.6729511715404
aF4.183202320440355
aF8.688745010810724
aF53.854225916878654
aF1.8750476581277198
aF9.595344514683235
aF59.8551987902192
aF7.253010883620226
aF7.056221943448246
aF6.885987798865481
aF10.3150754621069
aF35.100579967340245
aF23.793022064085722
aF18.829994947615713
aF6.810255170836996
aF10.416397475056707
aF4.752497182651388
aF31.012996647708828
aF10.18538344500199
aF20.22180857897799
aF22.59728600839868
aF12.552312834262379
aF72.70225062105074
aF21.837113353210302
aF4.011190302490009
aF5.545939561256576
aF17.0336323314116
aF12.216393940594472
aF60.106220273666686
aF45.3228371538109
aF46.594369412598724
aF11.62465134580287
aF34.59097849846207
aF21.376743493002852
aF49.0780358112266
aF6.388616808485004
aF17.885712753164203
aF27.944551510888175
aF10.32155032322173
aF7.7294739425685535
aF53.22819154082269
aF4.749543008140715
aF12.448956670915813
aF8.136211065462758
aF2.908819656994594
aF7.635065405098468
aF16.69562073482576
aF31.470777730271696
aF40.71931417542464
aF28.74973723205243
aF47.1942876084945
aF17.02775283004263
aF17.519222686390023
aF16.640614615239414
aF11.984429557870463
aF12.238404823418001
aF8.208226470890112
aF12.272880576264797
aF65.41767301000756
aF20.575278324497734
aF5.680701531181698
aF4.183124781909701
aF3.186885972861191
aF37.785557867454756
aF29.991364597145992
aF12.583105033928573
aF6.993009335519301
aF6.70153240861667
aF23.81168884847464
aF29.839108937392055
aF98.08785856027109
aF10.16653946663816
aF67.89641393054309
aF14.64815672709525
aF3.2956046727970083
aF33.19370099836608
aF47.911562731319506
aF5.302032067478636
aF9.963920500431358
aF20.20418699242128
aF20.084236941656204
aF2.3855587217596264
aF52.0287166446752
aF21.53952830902766
aF43.06370962178891
aF10.213181992948929
aF29.000211730760718
aF26.52419598326475
aF5.44267833848846
aF31.447982145379367
aF6.761018839097266
aF38.334937355311006
aF39.82322186090919
aF22.19978013987295
aF38.71217341894294
aF1.5023253000041983
aF20.706532793743623
aF8.149140870330875
aF32.99412471232862
aF28.130136532808145
aF7.485302296741131
aF10.587308034752496
aF47.432615473732426
aF32.28724516456134
aF25.14895336334152
aF10.620704692702096
aF26.22978550239404
aF7.277896634632357
aF4.264589670074355
aF7.231170287680271
aF11.816408641361912
aF11.626031939318917
aF26.887127851609403
aF3.5259952416266596
aF8.21860986359129
aF35.17820746304463
aF51.755143275301904
aF91.55135214085496
aF5.995562021633654
aF5.910860595812539
aF98.76704291797185
aF41.03456072441915
aF27.618268114377457
aF19.90384814771262
aF2.195093452211932
aF24.014705755900057
aF15.201630324889729
aF12.553513002139391
aF23.602879781334416
aF13.484824611790911
aF7.163901815894581
aF4.674584733409265
aF32.32570724325433
aF10.269312368711786
aF13.041348319311087
aF24.748908717820978
aF8.715833508016617
aF20.642447735941015
aF17.771040432458815
aF3.735421806567456
aF45.809264075642325
aF30.986637759299377
aF31.405289472179273
aF17.49587730547884
aF4.148161500472444
aF3.302321278415001
aF1.676905176510311
aF9.667555210853983
aF15.808777395932621
aF6.307437601634113
aF24.74329048690332
aF5.1237810053631785
aF39.810804468450456
aF7.327526671045924
aF65.70325933089636
aF47.92830253977892
aF28.589160452554548
aF5.915691471888778
aF35.29816568373806
aF4.164675623934127
aF4.245584770884206
aF10.129863805762335
aF13.83450285879315
aF53.56242981537782
aF21.020858102496263
aF43.624885268146215
aF8.350391482947895
aF5.594282658387252
aF17.81373755648351
aF5.705533607491078
aF36.93470615322311
aF0.909234073492068
aF8.281575022207013
aF60.61206867454694
aF35.83043543858225
aF10.548746344521327
aF20.693787374505895
aF1.9176427878411815
aF30.759324305352315
aF5.095596249889191
aF20.83314340894988
aF8.13322662476262
aF6.0787183226787
aF9.401214806839247
aF30.83606456462983
aF2.128185450347595
aF4.524724818796135
aF66.8433764715386
aF9.275225497733135
aF20.740516565034326
aF6.940688137944223
aF7.018973741126571
aF25.621350020254738
aF18.711522579001585
aF16.52509900906464
aF16.928153718303264
aF13.336707800050938
aF9.617382110459413
aF43.57363869433511
aF21.285087704760276
aF8.121258781421057
aF5.174055412784608
aF18.74150338221309
aF46.98516193750496
aF20.72842502316808
aF14.110012750785431
aF8.43064952177979
aF8.015774734081504
aF17.701821502672495
aF18.68429234261945
aF8.289792110454925
aF32.96546944471974
aF14.805708058982704
aF28.82153669224362
aF9.099364779932472
aF48.96747454389978
aF79.88226600533831
aF40.83038516878098
aF5.7303159066348615
aF7.711959361259013
aF28.483998366215115
aF14.103889692760246
aF50.085431956409934
aF83.3010025565556
aF34.687999677899086
aF15.225244530726275
aF1.1056769852291852
aF7.885361880910324
aF29.42017776580443
aF6.761417083528011
aF12.738385917172755
aF45.931291323909996
aF34.51217477020368
aF9.905127622574774
aF4.518831050591843
aF12.940915318621476
aF29.265633887086498
aF43.423011209198805
aF17.80786737719079
aF40.54747275385178
aF5.239436443315405
aF9.73645704200482
aF9.26371011429881
aF9.5485733529883
aF4.216439048975191
aF5.9779259849701525
aF31.095880040300287
aF12.719042987257632
aF15.682596204106018
aF33.91584674604323
aF20.73014757799052
aF34.60963985471001
aF25.0064142675158
aF29.9761131484432
aF4.220668381551292
aF35.28184300981215
aF6.89049100933263
aF21.55942394832478
aF12.279780095868452
aF8.359029195138124
aF29.75494894886431
aF7.5806304667034174
aF19.62964382413543
aF28.007442020023333
aF9.86207500911736
aF17.141019671915174
aF15.895474196028983
aF5.333807317935376
aF32.69654115291188
aF78.8100992909634
aF2.6243767451463573
aF32.308952134478574
aF33.75668420042249
aF78.02720856951575
aF37.45571840055719
aF6.478755879349876
aF22.51400853097095
aF7.992566438273174
aF45.06534397116097
aF31.96069641145058
aF4.019922765361039
aF3.6358708358611262
aF31.54279445770601
aF9.16844058241318
aF16.157040930849412
aF6.469782245525325
aF14.190733035457438
aF45.32385357225073
aF14.68172075171529
aF1.0660611787066976
aF11.258713083080712
aF3.7510483836826247
aF33.81020911306277
aF62.19884660554792
aF41.10364416835797
aF25.309323315175845
aF10.208493719556774
aF8.470550583553479
aF10.41943055366077
aF9.64848331525921
aF11.876299514113683
aF1.7645897566029103
aF17.63810387097697
aF4.213068673149335
aF18.396036434049716
aF9.649773482218855
aF13.222984831384577
aF16.107013849282676
aF4.874616179596
aF1.1975965811772564
aF34.82854906733436
aF19.883710560497146
aF10.572568515571822
aF1.4727459829746241
aF74.23862579761041
aF23.845954834684452
aF16.605656131752593
aF37.35562769256107
aF21.483352524335544
aF14.52630890426992
aF29.24288309345753
aF1.4591353722608706
aF22.44649680991253
aF26.99268779656973
aF12.862166262706712
aF5.717855807683571
aF23.688189758337423
aF41.84259959288499
aF37.71972012442865
aF19.998140878928684
aF19.517039707504853
aF32.331333932370704
aF18.8059141299351
aF9.047997177363698
aF31.80732040632432
aF6.335945591158067
aF9.70479849009044
aF27.79694325713897
aF40.12058416868544
aF30.991228579129036
aF7.9517477240269825
aF19.528199769405163
aF37.963719404649474
aF46.25968671799396
aF65.261027783869
aF15.520151744491802
aF37.03624732770049
aF18.499184333366934
aF41.128595016257165
aF9.425852133878333
aF3.0135627362326782
aF37.71377623263168
aF2.541649453442324
aF4.8957931794731175
aF5.898463110509014
aF41.40336662288235
aF6.113731382179002
aF21.13505713095188
aF15.18633958939939
aF4.3619518864718785
aF4.030865526250528
aF20.495729142902736
aF10.681342570375877
aF21.72280628904844
aF9.312987210977123
aF16.648585747557405
aF27.662682230438705
aF18.514928791788314
aF14.361932293518716
aF19.806208075758345
aF8.646250095898466
aF15.240590275068637
aF27.050356187047324
aF27.312143083459492
aF31.40648087112744
aF22.207524107114576
aF36.39387035236167
aF14.504787296640874
aF14.575513954166627
aF41.83984960951151
aF29.4909472573103
aF7.178467695610771
aF4.2876333302322465
aF18.27062171561062
aF18.067089496323586
aF10.522512301014768
aF20.161655797237234
aF45.98889208458096
aF9.747139838234132
aF10.328166992845034
aF22.052734664501692
aF7.301847243132467
aF9.887032966654907
aF27.156668193186956
aF14.675356376270107
aF58.11430575317943
aF22.519045560073113
aF7.077597086827144
aF4.631419961602393
aF27.982414881466454
aF9.173645332353047
aF9.606138200411218
aF7.047743431467003
aF50.559282703280516
aF15.318388485430097
aF19.25842880008132
aF5.302359495893732
aF12.503329329145672
aF27.63585548680744
aF58.686287830072615
aF39.276463087573745
aF3.7226296629667326
aF72.47784000396204
aF3.6970742796755607
aF7.53902891873096
aF40.849674502928785
aF25.025774474156282
aF10.168293657222291
aF4.808792417525977
aF17.65641690607189
aF36.53315016056719
aF17.832834846363415
aF15.651507633983362
aF11.668045128822573
aF7.913233474924035
aF18.774530740972278
aF1.5908220923669867
aF27.846970254898114
aF10.428809680627035
aF8.68934297518167
aF63.812984624080705
aF30.959040486659443
aF18.3805281186068
aF27.556036723103734
aF80.0456424893437
aF15.390017002760764
aF41.762805343564196
aF8.117296484204676
aF46.386657974525654
aF15.91487991396122
aF6.784792508360855
aF30.233251893624818
aF8.474072376497052
aF14.245790265512113
aF7.0810322028611035
aF28.28145661307821
aF28.570252856226666
aF7.26782788029939
aF19.944647199101563
aF6.2199124034039555
aF16.173234753595935
aF40.93361288139867
aF39.7204261490732
aF13.605409569110634
aF5.748474611898797
aF11.139341245877766
aF7.444538307370045
aF21.120549588025767
aF13.327338437767006
aF1.8591546468699687
aF9.80594030425663
aF19.034782398257807
aF5.225264877976993
aF32.760903584813065
aF63.647506701181804
aF3.14335186446323
aF23.710056262905525
aF25.070724151731465
aF17.34742859540153
aF34.87559143556852
aF28.569734570389592
aF1.5595622593293506
aF11.208511468038642
aF3.2499777983767033
aF18.37416445122786
aF16.065709745528963
aF2.2659608104794677
aF13.326609703145111
aF21.06872724888715
aF30.185949950692002
aF18.07821821097855
aF21.37089129148225
aF11.323853524878743
aF7.271808737820743
aF11.998658739867242
aF2.1253716799776523
aF35.3944738642802
aF84.92084512717568
aF9.079888651686284
aF18.08868293102082
aF23.381355932692234
aF37.89640087634486
aF12.019687890892719
aF4.558918316005106
aF33.3865180888365
aF40.667813562080795
aF7.325858393782149
aF17.500299142216182
aF8.16008581563897
aF52.44578950473866
aF8.869799845356898
aF1.1132580751396954
aF40.60958094525078
aF15.313935280030199
aF15.253584904769196
aF0.8591301407644564
aF9.153919377411405
aF6.5437072390903115
aF14.948238630700349
aF6.106480663713575
aF26.38411324092656
aF6.908175480577022
aF34.625681539233405
aF2.52772653217582
aF14.543606653975193
aF14.850718297772538
aF10.782852275293319
aF13.033716952174323
aF32.28892133075613
aF44.093238169306716
aF21.142694688334597
aF12.125335102722667
aF7.561784043832569
aF17.86159695607938
aF11.276002288368073
aF3.6552836121465444
aF3.9500413372763115
aF30.233249696747816
aF36.478272649573015
aF12.84621062290003
aF12.62648061086725
aF15.173214004008525
aF22.50815332309267
aF15.869022736458984
aF10.829963515907295
aF28.655037353795556
aF31.22027448062944
aF5.608510369844321
aF22.747449522431786
aF47.683725844123614
aF19.28297059181869
aF36.118462171710526
aF3.7023564818371444
aF28.726143056455673
aF15.70753212882764
aF31.236702756268187
aF9.525174548371533
aF29.539149527658275
aF18.318597835910683
aF35.32955064595036
aF11.588120390982144
aF82.76893850799962
aF6.819494643379282
aF58.01499926226819
aF4.330604199353616
aF10.92825038168598
aF8.966864343623692
aF13.051208855929797
aF12.790017863651057
aF36.89736683719927
aF39.40902383017779
aF8.744213060894614
aF11.580444380204614
aF39.71431219329667
aF9.676781256791323
aF19.37276581717348
aF29.2328489683933
aF23.813432226165222
aF29.809973340299052
aF45.345823786658485
aF13.268969022175725
aF7.508449956399594
aF27.380346005941668
aF18.72293218459012
aF17.438922509305762
aF8.982710680776398
aF44.65732033212051
aF15.766754803736
aF15.648824959053597
aF12.547397010331766
aF13.803827525125659
aF67.71345981940472
aF43.10283304145248
aF34.61375113707432
aF6.294379530366827
aF8.46871514660921
aF51.47408570898572
aF15.639308515980117
aF28.468691276736287
aF29.816911186537016
aF77.63133802408883
aF33.12689065285472
aF10.538828337903634
aF4.198172584113263
aF36.30597499467108
aF8.389544142756165
aF36.235020413446726
aF4.46787656587704
aF8.284668728827082
aF36.128735406821605
aF5.0152803599697755
aF26.494577066995205
aF61.71890866616897
aF10.54599026902984
aF36.309901169718145
aF25.13853939134456
aF43.19450673691939
aF18.9186938001872
aF16.131700338089573
aF2.782362065995019
aF35.79804488547817
aF3.613345694980431
aF15.543655695852342
aF23.060675596440433
aF6.5025488811022845
aF21.76915986792983
aF20.18883539535346
aF34.680033437491154
aF5.2376351010506195
aF16.956101000011223
aF29.612758685893358
aF26.83291121652377
aF32.782458839621434
aF26.266281671387784
aF25.204881611403255
aF29.558827792019784
aF1.031621552591082
aF16.940499643661568
aF29.25989868260687
aF34.514333152452934
aF3.550837492160413
aF3.7759660043272567
aF30.114374867333517
aF7.346010112491017
aF20.57417238841494
aF9.168169568278373
aF8.354804847797284
aF8.530577985379326
aF15.061910800667256
aF22.774557360453127
aF21.367171511738526
aF2.531399617128215
aF53.656404495506344
aF27.221612195743386
aF39.95342328925081
aF11.111989044893976
aF11.451558113112817
aF15.857621828594484
aF5.832213146480997
aF3.3971170289837715
aF25.687916636944305
aF27.39674751742921
aF41.542132602575414
aF4.676025263577903
aF40.23087627581493
aF38.59868505990571
aF23.46756546958016
aF9.520176179004057
aF9.292243483749134
aF7.222665307930033
aF4.7945636610486995
aF0.5608666194350621
aF6.63635978388486
aF21.84343394196363
aF39.7958717218713
aF3.67657741931943
aF38.781884154253426
aF14.206345135868048
aF13.199147274704265
aF8.025168652994102
aF19.18314298283456
aF15.737239567232287
aF1.8355203740916721
aF40.91008575001807
aF17.122495648179576
aF5.323780778496949
aF6.0306117630464335
aF19.352659024098013
aF28.15832326640129
aF31.015806760444743
aF17.09145812819636
aF9.429682487885751
aF39.505943759629666
aF28.116955504990347
aF57.10677766283587
aF15.207854127174926
aF3.915527285068379
aF58.25088280010429
aF43.86022443839326
aF30.700468887269807
aF4.841592927117501
aF8.808026760083138
aF12.636719782251
aF10.344944694294826
aF74.82881252662516
aF2.1156046541260305
aF60.23982078638108
aF10.993629830372662
aF34.25626067251814
aF25.543561996944856
aF15.81905755159614
aF21.286490547600806
aF12.147639375145381
aF49.27947666127419
aF0.9117671289296729
aF5.929729270434745
aF29.311917147575798
aF21.034010597953824
aF13.443429551051398
aF23.81948229592689
aF25.510317702553184
aF87.95531677486095
aF24.938956988825545
aF27.084627428794107
aF28.18119823462599
aF11.501464451741155
aF14.706117837327799
aF11.288131476783944
aF9.242549290882653
aF16.916932405050126
aF9.714900471251823
aF14.264142609417524
aF26.24178168141505
aF56.30416763994459
aF3.327444742757048
aF24.25013205395666
aF65.8773777366785
aF25.8568385387914
aF8.866014170014292
aF23.850532504227456
aF38.54584007520333
aF24.18044484588528
aF16.768004512899896
aF49.83724462880162
aF42.21864727684752
aF22.87394896143561
aF7.7899137621328824
aF15.599898740486939
aF44.99908536910707
aF11.865862577969484
aF59.879663360082446
aF2.9062256042102774
aF6.014103337078865
aF10.526122574155686
aF10.956466550794977
aF12.194493251417281
aF32.53397632742185
aF45.239023700236665
aF32.99291148886064
aF90.57208355249605
aF23.859492845989408
aF8.164797267190721
aF33.574690541795185
aF3.073591110478221
aF13.857900584073493
aF4.596349921777043
aF78.94076699555568
aF30.36906702589683
aF5.910595173593819
aF13.337012471246322
aF13.126772086526223
aF6.168082392379951
aF13.938477807694817
aF4.905678700672719
aF15.260290135563961
aF6.5236210201434
aF3.5256657859623943
aF30.269968507973665
aF18.210558586401305
aF47.607726131620794
aF27.521580608563067
aF64.76085582376821
aF52.65905399666505
aF16.868740825186105
aF1.2510508549304213
aF8.415801866199827
aF24.48406204931859
aF56.00573156098311
aF3.6707892738540284
aF15.965688523773368
aF1.2553182570597419
aF9.390341622331652
aF31.70402117450307
aF7.102724731530479
aF1.0957713891461656
aF46.86735042873207
aF37.1535816104095
aF20.871465885987163
aF63.0191742556165
aF6.1928193001033325
aF41.2220590186738
aF31.412659385795312
aF15.391850913756322
aF27.001507066294423
aF26.590171709286004
aF35.37588509216893
aF14.195665284581137
aF8.916892257772915
aF6.109571704570745
aF18.280611042002217
aF3.984956868769822
aF16.148828680036555
aF18.63626441785793
aF9.013736801749145
aF18.64013522452035
aF16.92806400064773
aF10.147784341142303
aF47.67298338387146
aF3.4921458563996564
aF16.42366181411205
aF0.22313597348897693
aF13.699880163472297
aF20.260881919037597
aF32.42528832148729
aF8.649065679569341
aF7.357591897377855
aF3.2817000378509698
aF10.121056861940772
aF10.796428817400841
aF9.706437112116244
aF21.360634112365283
aF29.755044824463376
aF12.679939267269281
aF36.07157217614619
aF32.06697396936914
aF6.195026703680069
aF44.233932146215075
aF32.90385186348867
aF11.193921484087346
aF15.791742118777886
aF18.26202649513027
aF35.3261833503494
aF11.501807035508874
aF9.156478628619812
aF2.437740659799036
aF1.860509910061982
aF15.647131553341946
aF13.423871654760985
aF64.00193428475234
aF1.534673352277777
aF20.204903528166636
aF20.935315776839232
aF41.19333766287357
aF6.266450231390878
aF11.48656019467101
aF13.88072969708211
aF12.333936165898054
aF35.45196472787092
aF4.879494285797536
aF19.557539684404226
aF30.220763245398935
aF10.060066395140423
aF31.7608583234747
aF39.70231572256915
aF9.9394275615776
aF33.631527259799796
aF3.9292633838317563
aF46.53010337657322
aF42.66033916829973
aF0.37638767229521125
aF39.621306663003104
aF8.999410021371355
aF5.8585902534568035
aF74.94655246207408
aF27.620124882291886
aF12.84602186774331
aF15.932040238969025
aF4.593199713049823
aF8.450365236470804
aF9.544925290500942
aF44.20155390924474
aF38.92305107663133
aF7.103446625927435
aF14.736410147645907
aF10.106555998965742
aF9.219744911202161
aF0.9304589509303978
aF42.5377490861357
aF16.96529244600018
aF12.22079101377013
aF17.722733720079717
aF7.184015370730212
aF47.52748347522652
aF29.319448133888333
aF29.09970835823597
aF9.77659436690814
aF18.066242259338292
aF3.487682274650137
aF76.16866401604635
aF16.46057562843027
aF3.584782126184001
aF43.24600198117687
aF32.41192352823224
aF11.144576144221357
aF13.592394672773743
aF9.168548064998626
aF27.176770944929082
aF33.635524408363814
aF7.95358628336301
aF10.71624210588068
aF16.45832419202771
aF31.267613214071606
aF6.344822828108886
aF43.4893072133332
aF32.47041912724642
aF11.227346979210465
aF24.28152858842353
aF0.9878784810386871
aF12.119952627038003
aF10.265535092837897
aF83.49501598707668
aF10.209643828796324
aF6.538081439396058
aF21.621750774726678
aF1.5255015743978952
aF11.605842276310979
aF17.104241009326138
aF20.219291953790115
aF35.634975476639035
aF15.838109536386442
aF3.139393913498142
aF21.48172600116993
aF16.072260414065283
aF23.227594788987517
aF13.405984824809043
aF10.140955309418825
aF1.767139254078014
aF5.381542588645275
aF17.920474766908704
aF20.139092494039726
aF1.773611733100229
aF28.836321241188966
aF26.131323632563703
aF30.797520352706638
aF35.27049237810914
aF8.257647727001425
aF8.608227958408554
aF13.501314790639606
aF44.335226623017675
aF57.78489065988566
aF14.031172461319263
aF27.364966809382945
aF4.297950998148775
aF0.49303413115454675
aF21.21550451528838
aF14.092196601737793
aF3.4159372377700894
aF37.70570606732368
aF33.52314618738404
aF57.541558645023116
aF13.736342307107604
aF46.07912269828075
aF26.91501150855409
aF13.707717443089525
aF18.99300743909961
aF25.58814495471728
aF9.744011644469731
aF41.38944424860279
aF12.187427218193983
aF17.89871155048468
aF7.106427348228349
aF35.959463875575885
aF7.508689913221328
aF26.933662965264602
aF4.386602225128143
aF18.655897434901842
aF17.34285897974714
aF16.756723376723713
aF22.50379747091507
aF13.86744748696027
aF22.92432514121585
aF35.76828453684156
aF24.14732682920803
aF6.287132984558723
aF44.629171423174455
aF74.63180434205618
aF3.343249132170774
aF23.062010807016414
aF19.38006767821454
aF22.39527932125174
aF7.744792598277521
aF2.6731019433437715
aF2.615044955267178
aF45.34792495012943
aF2.6309879589564407
aF10.649266292812062
aF20.704493214281808
aF35.26455175371443
aF6.248801211216765
aF41.76743896831212
aF3.1980907627938215
aF45.92765937950969
aF20.449473635154966
aF16.559235882237076
aF5.3154597049050185
aF26.35301526831848
aF9.896857682395428
aF44.83425693786079
aF5.112357888059452
aF15.250433737852473
aF32.838849838399504
aF19.149947449504424
aF12.74580395210966
aF32.369452151376
aF52.289705203489305
aF80.42570556009599
aF16.76970222268577
aF96.59647640097579
aF9.23066611979477
aF11.546628174333538
aF26.167839607864988
aF26.227102997956383
aF6.348423288607709
aF19.650853007150378
aF66.87528122838302
aF15.992188643655671
aF19.026987756370563
aF6.953635391288614
aF2.909144646540096
aF7.89175837358639
aF37.870992023590155
aF5.641887347178915
aF12.716616097703229
aF23.82116698078995
aF11.269774428310281
aF62.493572339550816
aF49.160287216786685
aF7.0872900671877135
aF7.960117293576255
aF2.363501379552677
aF16.056055942695085
aF10.885400716017513
aF2.5873535911960173
aF11.917631828785217
aF12.588001392797846
aF35.86505876505379
aF54.332876159428146
aF21.281511343467145
aF3.0425906291244953
aF17.50568691621548
aF15.076710255169607
aF25.833915389262796
aF22.954202779474983
aF13.426533141058098
aF21.411389546964415
aF12.77987668513991
aF33.16082838715188
aF44.30596100496079
aF52.72336234722675
aF18.992413373822245
aF39.85254079755511
aF6.235596339674699
aF17.09574779473083
aF19.13839182804186
aF11.930224577610867
aF2.5940302447374286
aF0.7750928048901143
aF64.86962123153988
aF15.237194753423163
aF37.53005548118113
aF10.788428490795704
aF18.397608694622658
aF5.034527262482369
aF24.730243075134755
aF14.657582747598049
aF26.24100070462137
aF3.920728098508114
aF42.129145933189754
aF22.70272754427162
aF40.98207720363721
aF6.855640568710717
aF13.740667965570863
aF34.62339307812988
aF2.9163544911404475
aF70.88569181212088
aF45.71600797143296
aF17.41567706755273
aF11.536677853449211
aF0.6188132743681168
aF7.773772548719102
aF9.3635520407491
aF13.481454042368279
aF16.504566947172577
aF44.290091593769745
aF6.448093352314783
aF43.73138945883276
aF6.154244500801828
aF18.70383513077357
aF60.71747516948541
aF62.06763903108489
aF7.795493092403287
aF39.042719340434935
aF9.415816542162933
aF30.5486989759784
aF3.835183693777808
aF4.994457877093198
aF49.19650181329498
aF45.52613186292602
aF21.579361592000215
aF4.036123580610943
aF25.099356878404958
aF11.255238564166726
aF44.64131108239077
aF15.816099335502678
aF27.667735347264937
aF21.683428150702273
aF37.90184675104159
aF16.076551750065423
aF9.33535338356628
aF46.1714106926419
aF23.132775295225034
aF12.90349825279814
aF18.97666567539432
aF13.626675964121121
aF9.786829003524174
aF15.978427253642382
aF11.361051666465949
aF1.4740026708960647
aF32.757380302527736
aF17.00484153796296
aF19.00442891651621
aF10.63731378526203
aF8.22195506415489
aF1.797314237084464
aF31.570979034338443
aF8.599393838275388
aF42.67429991376502
aF9.426990920475827
aF3.926106022165884
aF26.324317851968573
aF17.313544910131608
aF7.597880983363015
aF65.57282657232724
aF9.788481169535451
aF35.37247389908331
aF20.880394196767476
aF18.32281439924125
aF85.38261388093095
aF8.477258684169286
aF26.00001709868238
aF1.923949885604639
aF82.596182052503
aF18.935653048554645
aF20.88019234121658
aF45.31131661733419
aF7.5954831747916005
aF18.755482792782296
aF8.228128226179104
aF12.104190256416965
aF24.0507383483499
aF1.4830798395551248
aF7.05512927733436
aF11.271646159237124
aF4.468114669977795
aF21.255312330203513
aF20.25959339824944
aF22.359794391636186
aF19.336884019459205
aF17.892270915387204
aF9.206121367575504
aF55.15185553270227
aF8.391984984170175
aF32.26234402569386
aF37.09893241241387
aF23.923380813018607
aF42.56824071860836
aF10.675930022645018
aF41.24958617108893
aF0.3256018147365432
aF22.64718837678967
aF8.332362222258944
aF24.869751459064624
aF49.55629089260626
aF40.52531498671549
aF10.257633668502786
aF55.87567432608872
aF59.71751447616475
aF57.79342859643831
aF8.444118549833814
aF66.01723020781303
aF15.003949247904881
aF6.786927519930786
aF4.6442235982088995
aF26.680995815050945
aF15.016407761954525
aF6.102791016916954
aF25.002844769550563
aF23.248765358901277
aF40.504803264499046
aF33.71907295541655
aF14.630976758833075
aF3.952713433798699
aF2.976608392894386
aF33.69125806709303
aF12.385927732813842
aF23.59757466408541
aF4.105519931706103
aF32.36186033042645
aF3.3296714212711147
aF44.36969348147611
aF56.359627561926246
aF2.5390426108490396
aF5.129922767952023
aF37.34057212942015
aF11.877468027869238
aF7.22273511305448
aF24.613940999877556
aF37.838036517998454
aF72.24487565447566
aF34.47880423774046
aF10.168978591334612
aF4.934637733278831
aF35.29770007175894
aF22.11571119965374
aF28.35329598732414
aF11.51423360320099
aF68.1795056739659
aF61.94956404074539
aF20.744641372676412
aF9.77347738206969
aF8.474618174466755
aF89.33353799795422
aF10.20792974868148
aF8.317930745911479
aF12.579249479454736
aF26.551054850777142
aF50.0879174650712
aF5.122839311523206
aF5.3499475436129345
aF73.86598362624552
aF52.85820653222608
aF24.906366036652653
aF82.87382739544087
aF15.531264784416896
aF68.76338585418355
aF26.244138180004843
aF6.518093325614208
aF13.062200314825686
aF66.84004012738815
aF17.216965703905167
aF45.28657356306431
aF16.39031874502969
aF31.08964207962373
aF20.277533541086065
aF9.847855033755522
aF93.84627255018695
aF80.81390458183857
aF69.60138456974217
aF36.719841674116395
aF7.585012515115219
aF42.01726767368757
aF2.8305824780789814
aF48.265558990461244
aF14.115753841224567
aF4.79134624788733
aF7.170753191033699
aF29.82140107680654
aF37.39087315856916
aF28.757504424379377
aF12.749536723445814
aF25.024652856041758
aF6.332888970985855
aF29.472142274276656
aF40.084700893618546
aF11.685415346883454
aF0.6209930892611791
aF5.406873645459554
aF9.394795369201038
aF37.91109257985334
aF13.011570302517097
aF28.106832820361028
aF28.525423550135546
aF15.921652377722765
aF7.673924837015751
aF25.435469335269282
aF41.53773000305891
aF16.10492158977746
aF34.196481370891895
aF16.513927710870178
aF11.108528594619877
aF13.260317605337832
aF36.89128019463269
aF85.63364479678874
aF31.437466359648482
aF26.936151100741355
aF8.046593102890354
aF3.4096280539024746
aF11.660329067930558
aF85.85752542862926
aF6.995304469393701
aF41.96519823907468
aF3.501342117040719
aF4.900892179856937
aF6.473748455906758
aF50.46616235591208
aF31.5204195160363
aF16.28861638019805
aF3.4372250616477658
aF5.118689792574698
aF22.744088834642636
aF10.205757232222476
aF36.60340740193385
aF8.459868444696314
aF21.262773803541744
aF47.31467333986002
aF32.90974216760744
aF27.633055929128073
aF32.35528330055493
aF30.826464227920003
aF10.908778374783108
aF16.092472622279708
aF27.930477434883247
aF19.65935208780175
aF17.228279921717238
aF45.498618349376336
aF38.41846513651608
aF34.78220044814436
aF12.282071442256685
aF9.68668863595745
aF8.904394441755374
aF10.707310714527566
aF41.87503084016908
aF29.775398406127586
aF5.36090312632052
aF4.030740364686489
aF2.6781711360519234
aF26.302514234129468
aF14.406309232137483
aF30.895736862922835
aF4.662952433027849
aF2.373697439794372
aF11.269375717259338
aF61.09188263070373
aF4.6366011334242865
aF6.929127717380951
aF3.1689707980276314
aF10.73880947425593
aF49.39542000463974
aF11.58580314890136
aF17.636494874609156
aF3.2600776534860882
aF4.540349502801025
aF33.90784172338327
aF37.305765432088165
aF44.696976747275436
aF26.166568104931667
aF10.437339893789355
aF24.343993726646552
aF10.739871073622966
aF20.06723543791986
aF12.205756338391463
aF42.763353785058875
aF37.32767663708715
aF14.584734844372758
aF21.339169062628912
aF28.910185259892597
aF34.20263285265894
aF12.37786102465981
aF29.609101607707736
aF22.618657375610418
aF14.927765025688734
aF15.441130639202111
aF6.378918060599146
aF9.858531518383435
aF39.58793899589132
aF15.703418011079298
aF31.64166402181031
aF41.10794641361858
aF24.502142767808017
aF54.26499108625825
aF25.303311458907533
aF24.6624838923801
aF11.50922440562059
aF38.251067479083645
aF11.43583049751648
aF9.927328812880054
aF7.121552594356821
aF6.732942862154052
aF24.90378451722111
aF35.889114451629716
aF52.332022884545985
aF14.797301455950398
aF19.633136727790497
aF3.1893248020574
aF38.42959223285398
aF11.134771622983209
aF31.241768907648815
aF18.087404822394323
aF6.5872485545875366
aF31.110716222478075
aF9.694919838684037
aF29.722687418121875
aF17.647008030837217
aF66.58959103867137
aF13.141828801406376
aF59.54605611494128
aF28.580524232703606
aF35.94630546050747
aF64.21144835032963
aF3.596572860271645
aF13.493110314588481
aF97.37915107703586
aF3.748963853774994
aF33.67719161297459
aF11.342654855133663
aF40.75882880922271
aF41.150880358287196
aF9.06304656031607
aF72.74383324776976
aF15.131250211302971
aF7.57288937175751
aF21.782956527809066
aF4.685732075060661
aF3.0644262322077536
aF26.4630202521206
aF9.907891994243055
aF32.028972220428386
aF11.191631153263138
aF54.95575392495877
aF9.357521227654486
aF4.924851493709526
aF8.922063217406842
aF25.38166563363237
aF36.61020644323913
aF48.00832495367949
aF4.696715415987208
aF35.354377726637466
aF11.737904399965446
aF3.2724147262788734
aF2.768336134470211
aF47.43370105860714
aF14.466977053734011
aF27.223882574282186
aF36.032696036893526
aF27.462690351753466
aF51.86144890563317
aF10.678432270649761
aF47.77475741899037
aF8.218290160237158
aF15.196274556906717
aF16.032299607821102
aF11.06000219839239
aF1.3811037319242414
aF50.268371541351584
aF9.155446093845287
aF8.213256389580522
aF10.92900184624564
aF15.161662105107492
aF9.612940294149347
aF62.0965480703479
aF2.294431369122372
aF6.774174620653754
aF14.781620229959362
aF22.19122866426646
aF21.54629478863648
aF18.304162052817446
aF28.829411412781802
aF15.36138388238805
aF25.512256636395698
aF4.974498171141226
aF2.6911012058205013
aF47.58906753886401
aF50.90533049870981
aF2.532028465125991
aF55.78295918255394
aF7.005803185271804
aF27.852445946109977
aF17.163595710903326
aF21.175484508673478
aF18.501385642388087
aF46.02011977954561
aF9.041152141093228
aF27.33182770679279
aF7.5301366279101
aF22.19635232760442
aF71.39016496997007
aF25.10060038608046
aF12.829377046558454
aF16.803756985864826
aF19.101371545809883
aF2.1846631009308743
aF33.02858443613045
aF7.576986362525799
aF14.764548860439758
aF25.361584015512072
aF10.935917511904693
aF5.807108061622539
aF5.9288984479643885
aF18.218068117203845
aF12.475855435507656
aF2.467621154436268
aF9.128840144399952
aF22.465985897673058
aF15.226365143245335
aF47.53935803854672
aF56.06073664981567
aF18.44530743708419
aF2.394183408882991
aF6.070700977420893
aF1.6449549846324407
aF18.10641001730796
aF14.093591267284907
aF3.944720078931332
aF81.1983173631195
aF27.44074393885034
aF6.0505172169306345
aF34.35855293380075
aF37.15794768683703
aF15.207525965311744
aF20.43065068140409
aF19.20556001640143
aF16.28913644201031
aF46.0881184876924
aF12.456255430522877
aF12.927312876590022
aF16.265626196795452
aF56.56969656751293
aF36.64743199895146
aF14.04614316807964
aF32.61658659870673
aF20.269414516110068
aF18.57066759030236
aF24.323282998058296
aF2.2967664240070023
aF1.944745627345375
aF13.217102071842278
aF31.6041249090562
aF14.180161635224206
aF30.608613128655797
aF80.35993179931806
aF25.526206018803435
aF15.247260625995107
aF7.296096410744558
aF20.05923159422254
aF67.35238898313882
aF1.2448751773434232
aF32.9271860729818
aF41.62444862722013
aF22.68205356301995
aF25.6053919214274
aF14.191582942313778
aF49.887933878416376
aF37.95653461924607
aF70.80600403237364
aF2.5250973372332592
aF17.342865290180683
aF32.582343165000395
aF17.271957768380037
aF97.42826160080166
aF37.38058377983673
aF5.806970822737726
aF33.3164093115718
aF2.374189922723269
aF8.848633721458686
aF9.479732335739488
aF26.91855750564695
aF10.61483027717567
aF18.455428459280224
aF64.06513529296885
aF20.39727705785651
aF4.44017093369209
aF20.400604819068672
aF21.53760129661262
aF12.023084237468728
aF4.600048831655021
aF11.089832640848167
aF5.160253506934017
aF3.956762262740658
aF4.431093828230532
aF5.6409699599531935
aF8.465511723353409
aF9.999887571127328
aF8.981616366990384
aF20.187921900376914
aF7.1582430022586045
aF10.924322667185908
aF14.150674614707636
aF6.025035996024723
aF4.617952485886067
aF8.22095735841955
aF11.95480143659744
aF17.291794919350565
aF55.27639136082629
aF38.97660299369057
aF30.201759335466182
aF20.41896716130739
aF14.672213102479533
aF8.37547741059203
aF6.544091033580395
aF24.18765955889093
aF32.670633660029495
aF23.295385964706206
aF19.53758702693233
aF11.234605050364328
aF15.525057976218024
aF12.512803974794041
aF43.45651937386304
aF11.055907958031183
aF50.295433593695144
aF42.82626710005757
aF34.577356801267115
aF22.89565308568666
aF14.871444442691214
aF17.725789595028587
aF3.505878280418865
aF17.814026031610695
aF22.33919004016074
aF3.3779801333108157
aF41.33118071238807
aF69.12423363211072
aF42.07726555421351
aF24.36133031413596
aF29.57282718184461
aF22.049563053406203
aF10.317690440640414
aF4.687369611396576
aF40.91770261491448
aF42.32789514016558
aF35.865969836704494
aF26.214343214184584
aF46.85342589075834
aF61.06827896234466
aF34.3514456947092
aF66.60993365322344
aF30.798766051166886
aF30.64909722258696
aF8.55723971268891
aF22.366141799555447
aF51.91764727187679
aF5.349809939021537
aF6.648804099895122
aF4.286829052488471
aF24.593260384705772
aF28.862339256572838
aF20.318301895719475
aF15.2681320882393
aF21.35981747454093
aF11.208884215751548
aF20.292251977350602
aF20.031161711417802
aF18.42791414565599
aF39.12900813755276
aF13.558625373829887
aF6.004603154492102
aF26.522312799856795
aF20.32692246714249
aF62.76438658369004
aF57.343329699523196
aF10.20683591418034
aF14.910150283248788
aF37.41100540517595
aF13.176701142086795
aF72.04975537941355
aF10.20993137148911
aF43.711547119672574
aF31.947677188017863
aF12.099084413502142
aF4.746868277121093
aF19.20276037756688
aF5.914776110979988
aF62.893086350095814
aF21.393793139483797
aF26.82163349597358
aF12.225911536722517
aF1.3071265448954412
aF2.7030633291993453
aF15.958627707659582
aF66.5277495128396
aF36.79198193360076
aF9.275137518652475
aF2.270499303333013
aF7.6975183334995005
aF48.48000395545389
aF4.277711943038919
aF11.864127320932845
aF20.084628252091967
aF0.3706814473486462
aF5.030800943162697
aF28.042813871418968
aF12.474086382938241
aF11.726746253557835
aF42.80928868310407
aF13.55775365122236
aF31.441113720081013
aF48.243347804180736
aF25.785129267718645
aF13.636072754106127
aF9.700936358759899
aF20.71303481929135
aF9.704821870364773
aF23.379925134787253
aF2.5748315758896596
aF53.918405067274854
aF8.44467006330252
aF30.46963807897572
aF4.447847384316491
aF26.42898227835088
aF18.56699065341535
aF35.89182705699999
aF9.027700357740537
aF19.82250168068219
aF17.728324876525082
aF26.664439365333973
aF15.769927723591712
aF36.15727676983373
aF27.90387410849715
aF18.52416114942077
aF33.70713381445437
aF12.639023145286167
aF15.168481116234224
aF3.1049208409521003
aF86.10623015539278
aF2.264028222656941
aF39.99120557817018
aF26.47754698302685
aF2.4654435783201842
aF6.136668022066439
aF2.7373197446247217
aF15.026109877753084
aF10.869472382716088
aF17.864903809891405
aF58.186446366105876
aF4.7740800651382935
aF24.0343005199152
aF61.06263321815386
aF8.61896430971856
aF25.47384237890001
aF16.254891237536278
aF23.807935935829782
aF9.420507715131643
aF15.498798777914798
aF16.65098989085949
aF49.92635383675917
aF15.103374973410176
aF28.00399810654426
aF54.41441174745158
aF34.84410568037621
aF75.37691699397793
aF1.45911044599006
aF2.764335149377778
aF5.408674761171094
aF20.766487347917863
aF21.46884737499653
aF17.52144748837297
aF24.817814674599965
aF1.4280744428267584
aF5.401265852880576
aF25.61472701046808
aF18.72718218751963
aF37.54117146500811
aF8.196319951565506
aF24.311805542339197
aF13.289251801075663
aF20.07241288216003
aF85.78810367493666
aF40.74028453003229
aF7.904443213049943
aF44.0108119748169
aF6.45102060952862
aF21.23789226539357
aF28.499754825765706
aF11.289891721919915
aF11.218010355769342
aF29.720348305641938
aF13.35634574794702
aF23.335343935504856
aF12.629474711267129
aF15.314747712999646
aF3.6897734969836318
aF40.6993470425007
aF35.16352088712292
aF31.471005102099003
aF69.33135767088707
aF74.63511090755006
aF23.18962586902555
aF13.420081989986
aF25.687575862283623
aF6.016685301786125
aF8.74610938019756
aF20.78010454330913
aF10.269064551241987
aF33.76449979662172
aF7.900922930084176
aF30.322932639693946
aF54.020682992047156
aF10.019431391122431
aF41.01654652420062
aF46.31249647620169
aF23.991773111596423
aF10.54083233248504
aF15.559190010686468
aF6.521366965260113
aF27.059845987725524
aF52.12002257563911
aF11.08132451874266
aF36.12082573146051
aF1.2974529718241863
aF13.749848152262874
aF36.16214685159404
aF2.4201369817864467
aF12.20379415533709
aF13.348086177531888
aF0.2140571834436536
aF30.682757847688904
aF20.612525130604944
aF28.89812239999727
aF40.84754289150682
aF7.715750242614814
aF26.811502100473234
aF35.67072742289842
aF25.795246424264896
aF15.232634461211374
aF9.223347091332403
aF13.232180200197648
aF12.699069316606234
aF10.710721854118981
aF16.96466913066668
aF17.230842271810697
aF7.289849919109552
aF7.232697379209845
aF6.317669877541854
aF31.3485851333273
aF11.629901978519705
aF5.822574211369063
aF13.69089573168549
aF17.812165804640795
aF13.210547904644743
aF14.02097209020514
aF8.838422587225987
aF17.965319749073117
aF19.24323179159855
aF26.134444874554216
aF22.090492217606787
aF22.416272506863113
aF35.00978783677732
aF82.12538984975004
aF25.114514579704338
aF19.036963807543973
aF16.88809796591548
aF9.560241674318677
aF19.179001272486467
aF25.226394943951597
aF12.180360881707063
aF31.54073210415167
aF32.249947891926666
aF18.69116209486786
aF14.369651098133977
aF35.228400738926865
aF22.916443034810474
aF12.526249333388893
aF12.773969105338603
aF8.405314317966466
aF11.665833260129604
aF20.92429074068434
aF3.145005093552612
aF13.26789619714371
aF19.858688873956368
aF3.485941729144473
aF58.14729416734603
aF35.7334555983082
aF16.01345810510311
aF23.765244297479985
aF18.32462672280307
aF3.1175035082037907
aF8.993306581841598
aF54.702523895023035
aF5.686126998630198
aF13.153989584890759
aF8.155865020827047
aF6.044111172126458
aF1.424405019366706
aF3.2538818316649922
aF31.430681021614156
aF14.479403857628059
aF8.986986420375517
aF30.193709221949813
aF16.69973712027901
aF19.129899887877716
aF19.699114397195167
aF20.25086861739703
aF37.42846695915371
aF60.33855088361234
aF10.449423207376496
aF8.197404882991695
aF55.08324366535243
aF6.047865793337585
aF4.886830723585062
aF20.27780677238325
aF12.578322705452747
aF30.189410530649603
aF8.86446603308197
aF34.967636155019804
aF36.04775946860331
aF5.272876539886055
aF8.993762252519652
aF8.440602210946533
aF48.524982753297984
aF14.979764763710419
aF33.11054516407997
aF62.31354854940087
aF3.1972368808859213
aF20.445807761175327
aF71.32902442590722
aF15.888947126620273
aF76.49157359073392
aF33.057843832799186
aF7.513080136111387
aF70.3678682968217
aF7.280943621038522
aF17.509085280802424
aF28.469732580904605
aF23.582096805325236
aF27.521935254626776
aF49.480547944378365
aF6.122391871688291
aF15.63386683001935
aF18.965110585484023
aF29.70663613828589
aF4.2356622241066795
aF33.9440914720808
aF8.655203478835746
aF5.286443642347842
aF11.979758854994534
aF10.759155927820531
aF34.35853196808425
aF5.779802308798938
aF11.187147664634105
aF33.71029446963454
aF62.254953940158266
aF5.075703331091594
aF29.089862032190453
aF15.553038025609052
aF45.9062479898729
aF25.275944039910737
aF46.64460038232713
aF6.306023396585548
aF31.443131301005035
aF22.093145625913227
aF28.308077962106243
aF30.16695327457101
aF15.02256152470335
aF11.47839152014545
aF24.258838617050205
aF15.545143344394731
aF5.041628028926229
aF21.165944827128833
aF22.368681705455074
aF18.67099343059939
aF21.026770474961406
aF7.8601391792622985
aF42.37891898419594
aF13.91789305190209
aF7.867903314740549
aF3.865533231634812
aF2.2658986130770358
aF21.99355851152206
aF6.882964580470164
aF15.10184087758911
aF29.9904059182575
aF33.23832818633973
aF8.17432490512103
aF22.893904271518796
aF42.76533292146159
aF66.24296930180047
aF6.447931015549002
aF2.586504660053429
aF23.419869476210266
aF6.919859776644555
aF13.394619762570425
aF30.05545545692382
aF7.05238235676549
aF23.667136707845913
aF22.87627679595443
aF12.98286907609052
aF14.946061654538157
aF37.09161584197668
aF11.75415206084961
aF45.40790289599252
aF8.082360786372213
aF25.669916410557832
aF28.71098788815878
aF30.142746172610426
aF18.34836479343178
aF10.237765009639917
aF5.120785296806947
aF5.455753832479096
aF12.806479085047215
aF45.72234364417599
aF19.063277607259195
aF36.67036748107864
aF26.408743170422774
aF31.61900047049991
aF6.015406147724034
aF27.55823939687024
aF35.904471263924805
aF32.15065538380463
aF22.296101557113715
aF19.46982516667049
aF6.777881587763832
aF22.19329265845856
aF12.136140361960427
aF11.86784418886682
aF24.71683394407107
aF6.640400117846128
aF3.7748778993303005
aF21.232775727788717
aF51.458156499630064
aF60.40381243261271
aF13.467548634059106
aF17.239194745651865
aF1.4460690215524246
aF52.15333493857767
aF17.818474854589876
aF3.21614037397401
aF46.412205618828416
aF3.124533340106168
aF5.853322108283072
aF6.700897508051591
aF10.19999708281457
aF13.08081139732877
aF26.263229969099214
aF18.294576208068303
aF12.225309347176715
aF25.612693700412425
aF35.76334762830525
aF49.291790717951216
aF36.35448476515844
aF22.385833385498746
aF22.152959059901164
aF26.526174269573595
aF5.8580244473420064
aF27.627225207806077
aF34.69090933039776
aF33.32702125916861
aF7.433577058879513
aF5.521548145787284
aF15.462743359819628
aF10.497101158502812
aF14.538617225685002
aF8.45384064134649
aF4.723360693493205
aF30.327171978311576
aF18.91536098732076
aF23.276839731057464
aF33.96760513849789
aF24.96108379804168
aF14.085892739856847
aF14.515844055226086
aF12.217141917180783
aF23.236474323250174
aF36.25215047135036
aF5.2988214171050885
aF11.402726687367746
aF21.18465645513851
aF28.371439009229398
aF4.871751097320487
aF4.635643220472417
aF38.30242878565763
aF3.701358939697748
aF29.978946820785126
aF49.730090412047964
aF33.43171154632293
aF21.5625161273001
aF9.139301827624472
aF21.656555023495166
aF36.55824530713134
aF29.81070523631518
aF53.304371917886186
aF30.509499905610625
aF27.773150836535205
aF13.667985855582838
aF54.40714844310964
aF25.01962500887235
aF8.93502554621955
aF33.92371517161192
aF25.54790186968406
aF43.94390764433622
aF31.267674229119798
aF11.826055317356895
aF9.569353647391516
aF53.95762028462258
aF39.65695858991968
aF11.983441390882923
aF5.53726370821226
aF71.90481381009907
aF31.327483025890103
aF31.44181721884595
aF29.944042005969607
aF5.085327656829329
aF3.4347057443262385
aF27.306445186677035
aF8.685252018767434
aF9.570647657416421
aF35.18526015923017
aF14.802581775759071
aF29.194799255636585
aF8.803096288040166
aF33.15066794245633
aF39.8588287477235
aF6.144083393163673
aF29.279203764815662
aF2.2081697294828593
aF35.41790439680653
aF9.370529148214722
aF64.86287944135942
aF37.48575966794049
aF0.7507873697718966
aF17.188471512914845
aF13.60647102721849
aF18.75835255943301
aF8.178070609928197
aF8.625854884923102
aF25.313973767768324
aF48.457734973548675
aF31.41165627215223
aF20.156871407035375
aF7.235259100590107
aF3.740730134063411
aF18.140036578071925
aF21.28023840546215
aF1.183671716175481
aF40.48287255391229
aF17.02580579726521
aF29.290643264854786
aF9.9295483908914
aF28.169901891011417
aF21.559023226016794
aF4.231947162149771
aF7.644367733970677
aF5.443835378316234
aF9.344428622850455
aF11.573105530099536
aF6.104725480693441
aF29.927188862149652
aF23.52719381602845
aF54.70840940849589
aF3.4281383632260547
aF26.534162704740268
aF18.160853180272667
aF14.664284982694925
aF20.22956905342815
aF11.793629622656361
aF21.545001016499878
aF36.279575370806455
aF13.331764642630125
aF19.78301923927988
aF45.15780670395716
aF24.832171169473153
aF37.10266115875653
aF71.58293855857171
aF10.432049608270717
aF48.87197138706905
aF10.558337933650199
aF0.7186049078923
aF13.18710767580209
aF10.492214547269834
aF27.89367300650375
aF41.18832461221929
aF60.566365927455884
aF15.752600397126647
aF29.005731063933517
aF0.24517332693628785
aF10.917502626942143
aF63.50270558499796
aF60.394007888342195
aF36.13713322183806
aF29.252115743060752
aF33.02173471173848
aF47.69187824946697
aF63.85666125535568
aF16.98613097869327
aF20.963912088020606
aF31.43273958955483
aF29.892464064705482
aF24.10874317511163
aF55.807890168304404
aF31.370098023947527
aF51.44775280168404
aF10.118990531647835
aF22.819378624775037
aF66.74469309659939
aF9.998306259069604
aF26.64587502190242
aF35.75043298904517
aF35.00570864091427
aF39.507463954134415
aF5.848087463563001
aF24.11058545768739
aF43.6106293750061
aF22.53218879215546
aF11.791293720052474
aF7.179009547632376
aF4.543453083125326
aF5.246161885750752
aF12.483638605356392
aF14.467815141112322
aF16.324579283654177
aF40.12637064038211
aF35.32041551903829
aF64.09629669662984
aF26.878605023392304
aF24.015606567580416
aF8.146283753729525
aF5.567473244958808
aF22.099866989177816
aF69.10459912253297
aF17.54017740612726
aF15.857621786864197
aF40.232383824085
aF42.867670046797315
aF8.263501009723472
aF54.648540997100504
aF61.883229266098276
aF13.013408862768797
aF28.437956485008065
aF21.308148378531765
aF34.73561098672114
aF36.893611558934005
aF45.80859939531197
aF8.122257883630223
aF15.625030465217334
aF39.69157894786995
aF54.48917525922651
aF6.854056701952766
aF24.418059638819706
aF7.137587908622269
aF30.11150846104799
aF10.163778411318997
aF24.340220062518487
aF22.811506763147662
aF6.232313322739469
aF6.803643531038716
aF35.347706196817626
aF26.520569449073324
aF41.82906304948859
aF11.32166846791631
aF30.97578063456221
aF35.90682307783897
aF20.536669738528975
aF23.51148215472071
aF9.692342973520201
aF18.804747138796746
aF1.4469814493795894
aF16.542073446480448
aF20.92458828484744
aF42.69066423005681
aF6.350049059696221
aF14.596794796903172
aF15.515797357352447
aF19.359657925869755
aF26.812497781041753
aF29.534883273511888
aF39.501014312020985
aF17.28438339246234
aF21.03794685625155
aF20.67663821929719
aF5.758623879165048
aF12.193812202645345
aF10.039744499331508
aF4.3128869822692435
aF28.009169369873053
aF21.204275481507935
aF58.38607308997277
aF14.352374005871802
aF46.244118730709815
aF27.391957148294406
aF5.366933435885209
aF59.61747785207834
aF5.302092792561404
aF14.334317493689518
aF30.137898191586885
aF31.671742278840366
aF30.225801188375275
aF33.072570220640024
aF2.5626022489127784
aF33.00331536741796
aF6.675998290495759
aF25.781101280174326
aF22.909825495712
aF10.440033815149816
aF3.0457518527979492
aF1.9256064179633525
aF26.168631008648134
aF15.104095506974248
aF33.05067398525552
aF11.190953545961166
aF7.238386787105151
aF45.226521883972524
aF3.473249026360537
aF15.56364814896615
aF19.87794764205855
aF25.05775455917602
aF16.50124492835296
aF6.552735064731599
aF39.807813974077035
aF24.358592112868177
aF8.34747751778862
aF1.0460467557373854
aF12.7001699650642
aF23.05068845211074
aF1.0911839866847834
aF42.07662113081435
aF10.34012510025573
aF29.003474432299956
aF15.546493157025129
aF20.81975037690517
aF9.651458430534607
aF15.444670332936363
aF25.000619845253237
aF10.906566794475092
aF47.77303775445032
aF8.570294101680613
aF16.642135073315995
aF14.25350758158295
aF34.563222251493606
aF37.172793523053464
aF19.57820100441959
aF15.740752675259152
aF18.49550706139447
aF22.605232594274693
aF16.96441140791669
aF16.722301256866704
aF2.416963173800362
aF3.0021500414685938
aF35.59437146178684
aF17.179253456085092
aF30.238006173464584
aF9.557308242401502
aF7.782397832796331
aF27.109654933444418
aF25.548417335837204
aF15.28467152704943
aF15.532102267786275
aF7.154909712103923
aF36.97446615058056
aF35.516954640940156
aF6.395732896739389
aF2.293280125380228
aF33.282046543533504
aF19.158307535896704
aF34.616273330303244
aF19.41116342438499
aF18.245131638667935
aF28.10034940971881
aF1.388300331649943
aF15.950939658141259
aF29.954389630863464
aF21.91904010622032
aF27.300867578659343
aF6.801485923940656
aF30.297410370582366
aF9.907536587253947
aF13.457057966829048
aF14.182307267129742
aF13.66088407839127
aF25.153424786085544
aF49.72589910431745
aF54.608264303434915
aF18.019519542033553
aF16.59827914341182
aF12.427293114348627
aF3.7760152110348733
aF53.383005357969594
aF3.8757008931419126
aF4.871189036942306
aF18.519998110950397
aF47.583007733914876
aF24.853975368145697
aF15.471705898713013
aF36.00429671165552
aF12.817869504939027
aF42.34811820572892
aF19.964956918231177
aF12.134072613114432
aF38.902910257360986
aF30.636867103260748
aF34.14240393658104
aF29.712071601031376
aF14.454317377851595
aF25.88968183744999
aF45.89973627683187
aF2.4130873228881393
aF27.011180313642534
aF18.833926808449306
aF1.0711576200584338
aF5.306006589273057
aF4.327593090045883
aF34.23585275522375
aF9.863978112302382
aF31.11911273541945
aF14.274713627571577
aF13.241748886894722
aF5.81403272651105
aF28.693442167666934
aF26.489008414527945
aF28.020723137441816
aF27.96650435981555
aF67.13699196044097
aF77.30407431879817
aF8.759798257553891
aF17.390811708801262
aF8.80855655713267
aF25.92827436277315
aF9.508536441381104
aF17.60602975353048
aF21.823172384821603
aF11.295829354370785
aF13.601091378980223
aF15.814280261147408
aF18.696510880612603
aF47.5847630823387
aF21.21564267026189
aF22.885938872191215
aF15.076597518625173
aF36.469048338325
aF13.328953650058633
aF8.85022552491591
aF29.505396774913137
aF6.638849776040039
aF21.983195230329006
aF17.946366692586754
aF5.477769479609604
aF5.723244248687476
aF46.34648177975029
aF81.34841588289785
aF25.587095599781563
aF21.552961197209278
aF5.8604386401339115
aF41.3272428601838
aF21.933373093859302
aF26.398774989757833
aF68.27432404988923
aF15.877333205889615
aF12.771127308949916
aF16.10005904104192
aF16.91904859977399
aF37.21461547989511
aF12.974007864285332
aF31.478542430271734
aF28.666008731699772
aF40.57980782483827
aF4.77127950536163
aF3.738169974509915
aF1.5695715357920217
aF35.235353885452724
aF4.023548204574254
aF74.0169018594376
aF20.885117334515257
aF5.239404246102472
aF15.698037469226357
aF15.698105663339508
aF4.002044348843888
aF61.62089645672722
aF20.492841915165204
aF30.839205402758775
aF13.137458928213453
aF10.96671723440337
aF15.891083972080214
aF27.72583322158564
aF8.885774961104225
aF9.601467187513329
aF17.465853677902253
aF28.401974114889228
aF52.33906281080247
aF28.396330375655623
aF34.967268657853126
aF9.20903918287992
aF13.614555271498281
aF33.39730269985486
aF16.253012856257797
aF6.47114712299203
aF9.01657616119234
aF13.826224451122451
aF20.97468928092673
aF8.726392084220906
aF10.856316681891405
aF21.36963502172833
aF40.266484885478
aF15.413076430165992
aF3.3320102593113003
aF34.30747138049925
aF24.886365650779226
aF10.042550115530192
aF5.853261261088239
aF0.26943436010815563
aF1.8055918354788734
aF69.688030457872
aF22.76439050604902
aF21.86965112095899
aF12.304676032844302
aF58.571687657741215
aF53.46635933246357
aF36.92214700183261
aF67.33724790048772
aF74.50929312114103
aF29.1393365655226
aF0.6969274065607882
aF29.039852537244293
aF37.89054144140929
aF20.575745309263045
aF40.663333866287054
aF9.328541547662798
aF3.158334413487777
aF11.730889963004191
aF65.24451668043952
aF37.994998797255334
aF7.297822428465725
aF13.577724486495157
aF9.610592382293335
aF30.02470688207389
aF15.09616263200329
aF13.169103585904852
aF5.490740038336747
aF9.15401839524047
aF51.41341093403942
aF10.023346307281999
aF29.710113396108486
aF15.825179564091043
aF33.48756685405517
aF26.85810151281088
aF13.032152841131222
aF37.685806059967476
aF32.03641880072727
aF4.82299940133325
aF24.473988898942107
aF15.646292396785316
aF19.771032771247953
aF19.023447867120026
aF10.454860451468845
aF13.833133077869553
aF10.288964013993679
aF33.66537224793237
aF8.005335952680227
aF26.338354450493387
aF25.981120056147134
aF7.528532808664909
aF9.520148893108063
aF2.4847886939784907
aF24.642504647290096
aF12.583848237204663
aF11.696565143705932
aF6.961796900208227
aF7.153877082058047
aF25.997013259480863
aF47.61222241427013
aF13.507474347383969
aF68.06879576756081
aF4.43756372358754
aF7.503144112128994
aF1.7633060472336042
aF42.962196283470675
aF17.745716892665396
aF76.46567319667516
aF15.598759997212163
aF45.65893922432039
aF14.010287694037391
aF25.340119414266592
aF87.08081694976967
aF96.2485658643653
aF17.38955829174063
aF66.66926450950434
aF4.916511164949101
aF32.21581622849195
aF26.778363177656924
aF3.3090471181367853
aF38.22627285200916
aF3.0227610533801283
aF75.20670113230443
aF11.264952233187064
aF35.329206174738076
aF11.743255123323207
aF49.36952521173782
aF4.477929678708179
aF17.028085005838527
aF26.011963801176357
aF26.408818579963782
aF22.110387678911554
aF11.702843528330662
aF32.56366606917995
aF14.482729206286603
aF19.533487516809767
aF33.88478514891195
aF1.1129141248418606
aF58.88090364728661
aF12.984426112751581
aF19.87608525340436
aF21.76237957166111
aF47.1964826785053
aF32.58530942533286
aF22.821894843657063
aF10.890007358263007
aF16.712754098065297
aF25.837614922684516
aF10.93968011479819
aF15.71711001484433
aF13.41754935960981
aF12.14681510600679
aF46.6016897118992
aF3.9774903895412415
aF3.8880827548119967
aF15.715616631877092
aF33.390710912434734
aF31.54507350785626
aF19.612784041392775
aF13.434173607210129
aF16.720564563661807
aF38.913100723591306
aF35.3044932511538
aF6.225309430119938
aF30.454098751728104
aF5.8391459884246455
aF6.572326338194204
aF9.87161045064077
a.